Certificate:
    Data:
        Version: 3 (0x2)
        Serial Number: 268435672 (0x100000d8)
    Signature Algorithm: sha256WithRSAEncryption
        Issuer: C=DE, ST=Hessen, O=privacyidea, CN=CA001
        Validity
            Not Before: Jan 22 13:05:36 2018 GMT
            Not After : Jan 22 13:05:36 2019 GMT
        Subject: C=DE, ST=Hessen, O=privacyidea, CN=usercert
        Subject Public Key Info:
            Public Key Algorithm: rsaEncryption
                Public-Key: (2048 bit)
                Modulus:
                    00:dc:2f:d1:5f:29:97:d4:7c:c3:53:c8:30:bd:4b:
                    67:70:2c:24:6b:b8:5e:eb:21:7a:48:12:56:7c:81:
                    5c:48:75:b6:68:eb:f6:f2:98:4e:50:51:d1:7f:6c:
                    73:f3:0a:a7:ae:be:48:5e:e5:d6:e1:d9:2a:7c:32:
                    6e:4e:fd:08:f6:5a:54:49:23:73:c3:b9:07:18:d1:
                    ef:b3:ac:f8:8a:dc:94:96:a4:90:3a:8e:74:df:e6:
                    0d:37:1b:bd:5b:b7:25:1a:56:39:da:6f:91:aa:5e:
                    1c:74:f3:f9:7c:14:01:83:12:65:76:c7:bb:fe:36:
                    5b:95:e9:72:65:83:ed:3e:98:30:71:fa:87:dd:a3:
                    36:5a:30:03:2e:26:e0:61:d1:bf:02:3f:b6:06:1f:
                    4a:89:28:1c:5c:a2:ff:4e:be:94:e6:8c:e0:da:82:
                    f1:9d:29:32:48:30:73:b4:04:f6:42:1e:be:f7:e2:
                    32:32:27:3c:9d:89:2f:70:3e:85:9a:6f:5c:c5:09:
                    c0:8c:32:2f:72:22:c9:d2:95:1f:b6:ac:72:60:72:
                    b7:82:4d:6b:ce:5b:e3:00:d0:d2:2f:58:c6:e0:10:
                    e5:51:ca:4d:3b:2e:e6:7e:ab:84:d6:56:f1:93:35:
                    a0:93:64:26:81:75:2f:91:b5:16:06:38:0b:db:cc:
                    2d:07
                Exponent: 65537 (0x10001)
        X509v3 extensions:
            X509v3 Key Usage: 
                Digital Signature, Key Encipherment
            X509v3 Basic Constraints: 
                CA:FALSE
            Netscape Cert Type: 
                SSL Server
            Netscape Comment: 
                OpenSSL Generated Server Certificate
            X509v3 Subject Key Identifier: 
                FC:14:D1:F0:4B:8D:00:90:F2:F5:B8:71:9E:4E:97:C3:92:54:AD:0B
            X509v3 Authority Key Identifier: 
                keyid:F4:A7:C0:CC:91:46:AF:64:F3:91:F2:27:F8:C8:B2:6F:8A:87:32:73
                DirName:/C=DE/ST=Hessen/O=privacyidea/CN=CA001
                serial:FB:C8:EB:AC:83:CD:12:07

            X509v3 Extended Key Usage: 
                TLS Web Server Authentication
    Signature Algorithm: sha256WithRSAEncryption
         26:3b:20:4f:a5:ff:2d:7f:cb:95:1d:b5:56:e0:88:fd:ef:f8:
         21:ef:62:d4:4b:b2:8d:46:a3:07:90:8f:97:26:11:45:7f:4a:
         58:04:a0:ee:23:89:55:92:16:c8:27:36:d6:18:d5:fb:74:04:
         be:52:87:f0:e3:bb:6e:30:03:6e:16:db:de:26:83:01:1b:8a:
         43:96:a8:3b:96:bc:ac:ad:5b:e9:da:eb:34:25:5e:7d:94:60:
         df:a9:ea:b0:c8:89:c8:f6:ae:02:a4:78:ea:11:a8:e2:d1:db:
         ed:7d:98:1a:e0:c9:58:7e:63:18:be:86:e6:27:4c:8a:38:7e:
         3d:a8:de:52:c2:28:b0:fc:4a:3d:f9:dc:bd:61:e6:d3:84:90:
         c3:08:5d:83:6c:01:a2:51:50:06:d9:57:3a:96:3e:a8:ef:0a:
         75:c3:48:69:68:41:40:92:84:73:42:d5:cf:ce:b6:91:d0:5a:
         ad:5a:b0:c1:20:90:f3:eb:de:88:8c:81:e2:eb:9e:53:69:45:
         d7:1c:b5:0b:3d:24:3d:9e:12:da:ac:74:f1:10:03:cf:17:e2:
         c4:61:92:91:9f:be:09:da:44:d7:f9:ab:51:ea:a9:cf:82:6c:
         08:91:ca:9a:d1:00:de:8d:f3:9c:96:03:20:e9:be:14:d5:b8:
         96:69:f4:98
-----BEGIN CERTIFICATE-----
MIIEGTCCAwGgAwIBAgIEEAAA2DANBgkqhkiG9w0BAQsFADBEMQswCQYDVQQGEwJE
RTEPMA0GA1UECAwGSGVzc2VuMRQwEgYDVQQKDAtwcml2YWN5aWRlYTEOMAwGA1UE
AwwFQ0EwMDEwHhcNMTgwMTIyMTMwNTM2WhcNMTkwMTIyMTMwNTM2WjBHMQswCQYD
VQQGEwJERTEPMA0GA1UECAwGSGVzc2VuMRQwEgYDVQQKDAtwcml2YWN5aWRlYTER
MA8GA1UEAwwIdXNlcmNlcnQwggEiMA0GCSqGSIb3DQEBAQUAA4IBDwAwggEKAoIB
AQDcL9FfKZfUfMNTyDC9S2dwLCRruF7rIXpIElZ8gVxIdbZo6/bymE5QUdF/bHPz
Cqeuvkhe5dbh2Sp8Mm5O/Qj2WlRJI3PDuQcY0e+zrPiK3JSWpJA6jnTf5g03G71b
tyUaVjnab5GqXhx08/l8FAGDEmV2x7v+NluV6XJlg+0+mDBx+ofdozZaMAMuJuBh
0b8CP7YGH0qJKBxcov9OvpTmjODagvGdKTJIMHO0BPZCHr734jIyJzydiS9wPoWa
b1zFCcCMMi9yIsnSlR+2rHJgcreCTWvOW+MA0NIvWMbgEOVRyk07LuZ+q4TWVvGT
NaCTZCaBdS+RtRYGOAvbzC0HAgMBAAGjggEOMIIBCjALBgNVHQ8EBAMCBaAwCQYD
VR0TBAIwADARBglghkgBhvhCAQEEBAMCBkAwMwYJYIZIAYb4QgENBCYWJE9wZW5T
U0wgR2VuZXJhdGVkIFNlcnZlciBDZXJ0aWZpY2F0ZTAdBgNVHQ4EFgQU/BTR8EuN
AJDy9bhxnk6Xw5JUrQswdAYDVR0jBG0wa4AU9KfAzJFGr2TzkfIn+Miyb4qHMnOh
SKRGMEQxCzAJBgNVBAYTAkRFMQ8wDQYDVQQIDAZIZXNzZW4xFDASBgNVBAoMC3By
aXZhY3lpZGVhMQ4wDAYDVQQDDAVDQTAwMYIJAPvI66yDzRIHMBMGA1UdJQQMMAoG
CCsGAQUFBwMBMA0GCSqGSIb3DQEBCwUAA4IBAQAmOyBPpf8tf8uVHbVW4Ij97/gh
72LUS7KNRqMHkI+XJhFFf0pYBKDuI4lVkhbIJzbWGNX7dAS+Uofw47tuMANuFtve
JoMBG4pDlqg7lrysrVvp2us0JV59lGDfqeqwyInI9q4CpHjqEaji0dvtfZga4MlY
fmMYvobmJ0yKOH49qN5Swiiw/Eo9+dy9YebThJDDCF2DbAGiUVAG2Vc6lj6o7wp1
w0hpaEFAkoRzQtXPzraR0FqtWrDBIJDz696IjIHi655TaUXXHLULPSQ9nhLarHTx
EAPPF+LEYZKRn74J2kTX+atR6qnPgmwIkcqa0QDejfOclgMg6b4U1biWafSY
-----END CERTIFICATE-----
