Certificate:
    Data:
        Version: 3 (0x2)
        Serial Number: 268435670 (0x100000d6)
    Signature Algorithm: sha256WithRSAEncryption
        Issuer: C=DE, ST=Hessen, O=privacyidea, CN=CA001
        Validity
            Not Before: Mar 27 06:17:34 2018 GMT
            Not After : Mar 27 06:17:34 2019 GMT
        Subject: OU=realm1, CN=cornelius/emailAddress=user@localhost.localdomain
        Subject Public Key Info:
            Public Key Algorithm: rsaEncryption
                Public-Key: (2048 bit)
                Modulus:
                    00:a2:0c:a6:26:80:06:93:79:f8:dd:af:25:b5:df:
                    52:99:20:ff:16:74:c4:30:6b:be:1f:a5:cf:42:f2:
                    f1:71:cd:c1:b6:0c:0d:66:5c:4a:a8:d1:fc:d5:2c:
                    a1:fc:1e:9a:50:2a:3e:e5:17:94:4f:b1:6d:d8:d3:
                    31:ec:f3:23:1e:c0:3c:60:ab:87:c3:3d:ca:00:6a:
                    ef:32:e9:ee:14:f4:06:9f:6d:67:13:63:5c:fa:d7:
                    ce:40:c6:7b:ab:88:f6:82:7e:11:68:c1:9d:9f:da:
                    94:56:43:1a:85:2e:d1:07:4a:41:3c:7b:d1:76:51:
                    00:9a:62:75:87:9f:7b:71:fc:32:99:8a:95:35:ab:
                    a1:ff:54:a6:e3:ca:c9:84:88:8a:a5:60:8c:64:a2:
                    49:a1:15:99:b4:51:d1:91:fb:3c:11:f1:f2:18:72:
                    12:9c:6e:7a:12:2f:8b:84:6d:c3:e6:6f:8e:60:94:
                    15:17:66:fb:b6:7c:97:59:28:ba:48:3e:35:e5:72:
                    20:7e:15:43:e6:55:9b:92:ac:79:aa:b2:30:98:5e:
                    05:92:74:58:79:25:34:77:6e:8e:7f:fe:20:b8:df:
                    f4:61:9e:60:33:8a:14:68:62:7b:61:3e:29:be:63:
                    3e:a9:80:55:74:0f:df:fa:6c:5d:4e:3f:6a:4e:8c:
                    90:23
                Exponent: 65537 (0x10001)
        X509v3 extensions:
            X509v3 Key Usage: 
                Digital Signature, Key Encipherment
            X509v3 Basic Constraints: 
                CA:FALSE
            Netscape Cert Type: 
                SSL Server
            Netscape Comment: 
                OpenSSL Generated Server Certificate
            X509v3 Subject Key Identifier: 
                17:78:B4:3B:82:FF:D4:6A:05:A1:82:75:60:E3:F6:5D:C0:DB:2A:F3
            X509v3 Authority Key Identifier: 
                keyid:F4:A7:C0:CC:91:46:AF:64:F3:91:F2:27:F8:C8:B2:6F:8A:87:32:73
                DirName:/C=DE/ST=Hessen/O=privacyidea/CN=CA001
                serial:FB:C8:EB:AC:83:CD:12:07

            X509v3 Extended Key Usage: 
                TLS Web Server Authentication
    Signature Algorithm: sha256WithRSAEncryption
         72:e6:df:39:42:98:83:59:33:03:c6:2c:eb:bf:b8:78:b4:f5:
         89:9f:6c:16:a7:a0:aa:02:8d:64:1f:46:2f:e3:47:b5:9c:38:
         a1:c0:62:9f:f1:1b:b2:05:f6:96:c4:bc:1b:dd:7f:af:06:48:
         86:5a:e2:31:d7:3e:97:b5:c8:30:40:f0:bf:3b:a7:d4:f9:68:
         37:85:2b:fb:31:76:62:be:3c:ca:82:02:61:69:1a:2f:d5:37:
         27:c3:1a:76:92:b8:5f:0b:88:23:66:83:f1:3e:67:b3:47:45:
         4f:9e:38:a0:88:23:9d:58:63:b9:97:ba:7d:95:22:89:8e:ec:
         13:e9:cc:14:cf:2c:98:2b:ba:ea:b9:b6:43:60:a6:47:9d:66:
         25:bb:39:41:aa:d6:82:7a:5e:1e:64:d2:f9:84:22:48:c5:6d:
         99:20:c6:ea:74:2f:5c:f3:ea:a7:5e:2c:50:0f:14:fa:aa:b1:
         83:c3:4d:76:b6:65:99:28:99:85:b6:08:7c:d1:77:69:ca:34:
         b9:7d:9e:bb:7e:1a:d7:eb:7d:2a:14:a9:c3:dd:ef:6b:24:b4:
         a2:93:37:0c:76:48:0e:dc:af:34:11:87:3e:72:73:e1:b0:f3:
         bf:23:a1:9c:0e:ed:87:b0:78:5a:90:59:40:97:c8:8c:be:f5:
         54:cd:9f:05
-----BEGIN CERTIFICATE-----
MIIEIjCCAwqgAwIBAgIEEAAA1jANBgkqhkiG9w0BAQsFADBEMQswCQYDVQQGEwJE
RTEPMA0GA1UECAwGSGVzc2VuMRQwEgYDVQQKDAtwcml2YWN5aWRlYTEOMAwGA1UE
AwwFQ0EwMDEwHhcNMTgwMzI3MDYxNzM0WhcNMTkwMzI3MDYxNzM0WjBQMQ8wDQYD
VQQLDAZyZWFsbTExEjAQBgNVBAMMCWNvcm5lbGl1czEpMCcGCSqGSIb3DQEJARYa
dXNlckBsb2NhbGhvc3QubG9jYWxkb21haW4wggEiMA0GCSqGSIb3DQEBAQUAA4IB
DwAwggEKAoIBAQCiDKYmgAaTefjdryW131KZIP8WdMQwa74fpc9C8vFxzcG2DA1m
XEqo0fzVLKH8HppQKj7lF5RPsW3Y0zHs8yMewDxgq4fDPcoAau8y6e4U9AafbWcT
Y1z6185AxnuriPaCfhFowZ2f2pRWQxqFLtEHSkE8e9F2UQCaYnWHn3tx/DKZipU1
q6H/VKbjysmEiIqlYIxkokmhFZm0UdGR+zwR8fIYchKcbnoSL4uEbcPmb45glBUX
Zvu2fJdZKLpIPjXlciB+FUPmVZuSrHmqsjCYXgWSdFh5JTR3bo5//iC43/RhnmAz
ihRoYnthPim+Yz6pgFV0D9/6bF1OP2pOjJAjAgMBAAGjggEOMIIBCjALBgNVHQ8E
BAMCBaAwCQYDVR0TBAIwADARBglghkgBhvhCAQEEBAMCBkAwMwYJYIZIAYb4QgEN
BCYWJE9wZW5TU0wgR2VuZXJhdGVkIFNlcnZlciBDZXJ0aWZpY2F0ZTAdBgNVHQ4E
FgQUF3i0O4L/1GoFoYJ1YOP2XcDbKvMwdAYDVR0jBG0wa4AU9KfAzJFGr2TzkfIn
+Miyb4qHMnOhSKRGMEQxCzAJBgNVBAYTAkRFMQ8wDQYDVQQIDAZIZXNzZW4xFDAS
BgNVBAoMC3ByaXZhY3lpZGVhMQ4wDAYDVQQDDAVDQTAwMYIJAPvI66yDzRIHMBMG
A1UdJQQMMAoGCCsGAQUFBwMBMA0GCSqGSIb3DQEBCwUAA4IBAQBy5t85QpiDWTMD
xizrv7h4tPWJn2wWp6CqAo1kH0Yv40e1nDihwGKf8RuyBfaWxLwb3X+vBkiGWuIx
1z6XtcgwQPC/O6fU+Wg3hSv7MXZivjzKggJhaRov1Tcnwxp2krhfC4gjZoPxPmez
R0VPnjigiCOdWGO5l7p9lSKJjuwT6cwUzyyYK7rqubZDYKZHnWYluzlBqtaCel4e
ZNL5hCJIxW2ZIMbqdC9c8+qnXixQDxT6qrGDw012tmWZKJmFtgh80XdpyjS5fZ67
fhrX630qFKnD3e9rJLSikzcMdkgO3K80EYc+cnPhsPO/I6GcDu2HsHhakFlAl8iM
vvVUzZ8F
-----END CERTIFICATE-----
