Certificate:
    Data:
        Version: 3 (0x2)
        Serial Number: 268435671 (0x100000d7)
    Signature Algorithm: sha256WithRSAEncryption
        Issuer: C=DE, ST=Hessen, O=privacyidea, CN=CA001
        Validity
            Not Before: Mar 27 06:25:55 2018 GMT
            Not After : Mar 27 06:25:55 2019 GMT
        Subject: CN=selfservice,CN=user,O=realm1/emailAddress=meine
        Subject Public Key Info:
            Public Key Algorithm: rsaEncryption
                Public-Key: (2048 bit)
                Modulus:
                    00:cf:3c:d4:33:0e:12:c4:e6:da:cd:b6:56:a1:1c:
                    26:bb:26:1c:8a:4a:73:a8:58:8a:b6:1e:b3:8b:99:
                    d2:1d:07:c2:92:89:79:c0:69:d8:c8:df:28:61:98:
                    1e:b3:fe:ae:2b:bd:78:a9:f7:6e:47:dc:a3:a0:16:
                    8c:85:02:c1:4e:92:fd:72:6e:f0:c8:03:29:9b:b8:
                    00:6e:c0:83:95:c8:34:20:36:9c:b3:e5:e4:e6:76:
                    73:a3:1a:ad:40:96:e0:53:54:00:ec:76:79:9a:c6:
                    0d:7e:b6:bd:29:ec:83:f3:cb:89:a4:cb:6c:00:ba:
                    0c:c5:78:0f:ff:69:b8:94:f4:04:70:43:3f:d8:9e:
                    d7:a7:fb:5d:ce:75:8e:da:e7:c4:07:b1:9d:de:6f:
                    88:4b:b6:4d:9a:cf:f9:bc:fa:9f:cd:32:6d:f6:3a:
                    0b:0d:23:42:78:ec:97:42:bf:0e:4d:60:56:e1:d3:
                    02:f2:19:cb:84:57:90:e5:70:a1:a2:83:35:86:e2:
                    da:86:9f:f9:8a:c4:79:b3:52:28:da:cb:bb:34:ca:
                    d3:da:91:4a:cf:8d:76:a2:b2:6b:9b:f9:96:fd:09:
                    2a:da:11:23:4d:f0:cb:d6:b2:b1:0e:12:6c:9a:19:
                    65:98:87:ca:e4:ee:24:ce:44:ac:90:8f:9d:1b:c5:
                    2a:9d
                Exponent: 65537 (0x10001)
        X509v3 extensions:
            X509v3 Key Usage: 
                Digital Signature, Key Encipherment
            X509v3 Basic Constraints: 
                CA:FALSE
            Netscape Cert Type: 
                SSL Server
            Netscape Comment: 
                OpenSSL Generated Server Certificate
            X509v3 Subject Key Identifier: 
                4D:07:90:AD:FF:1D:0D:E7:1A:DD:D6:2E:FA:BA:34:CB:AA:1F:24:C6
            X509v3 Authority Key Identifier: 
                keyid:F4:A7:C0:CC:91:46:AF:64:F3:91:F2:27:F8:C8:B2:6F:8A:87:32:73
                DirName:/C=DE/ST=Hessen/O=privacyidea/CN=CA001
                serial:FB:C8:EB:AC:83:CD:12:07

            X509v3 Extended Key Usage: 
                TLS Web Server Authentication
    Signature Algorithm: sha256WithRSAEncryption
         b6:b0:0f:74:90:72:0e:2d:f7:da:44:ec:71:5c:e2:15:d0:e5:
         e8:65:08:8b:80:22:ab:72:3b:92:44:34:46:82:d2:3c:bd:0b:
         5e:3e:af:e6:85:1d:fb:ba:28:fb:c1:a8:4f:c6:b1:24:af:c8:
         cc:ab:ec:bb:41:b9:86:ac:5c:3a:6c:c6:6b:53:96:e4:c7:2a:
         b0:b5:3c:f3:a3:77:7d:64:1c:00:90:8e:56:26:d1:16:63:10:
         4e:74:67:55:67:5c:dd:dc:49:a9:55:04:af:b9:57:7c:24:24:
         24:17:0c:57:54:bc:a4:3f:20:a7:3e:1a:cb:b7:6f:eb:68:6b:
         6b:74:2c:ce:9d:b7:c2:15:ac:5b:96:32:d6:ed:03:2d:8a:d5:
         6a:be:68:3c:aa:9a:7e:9d:38:ff:b9:64:37:2a:da:d2:5f:75:
         b0:68:ea:58:72:28:3a:5e:d3:e8:17:b1:d3:8f:e9:0f:9c:12:
         8e:7b:10:44:6c:f3:2e:d8:bd:00:f1:5b:21:cf:f5:07:cc:95:
         56:76:e1:8b:a8:b8:6f:8b:72:04:43:44:9d:e2:d7:60:7e:6c:
         fa:9e:b1:88:2c:45:a5:ee:a9:95:60:2a:bf:ad:2e:f2:e4:21:
         40:2c:5f:fd:b3:cd:04:db:71:72:67:7b:e4:46:79:50:fa:03:
         a7:76:38:0b
-----BEGIN CERTIFICATE-----
MIIEDzCCAvegAwIBAgIEEAAA1zANBgkqhkiG9w0BAQsFADBEMQswCQYDVQQGEwJE
RTEPMA0GA1UECAwGSGVzc2VuMRQwEgYDVQQKDAtwcml2YWN5aWRlYTEOMAwGA1UE
AwwFQ0EwMDEwHhcNMTgwMzI3MDYyNTU1WhcNMTkwMzI3MDYyNTU1WjA9MSUwIwYD
VQQDDBxzZWxmc2VydmljZSxDTj11c2VyLE89cmVhbG0xMRQwEgYJKoZIhvcNAQkB
FgVtZWluZTCCASIwDQYJKoZIhvcNAQEBBQADggEPADCCAQoCggEBAM881DMOEsTm
2s22VqEcJrsmHIpKc6hYirYes4uZ0h0HwpKJecBp2MjfKGGYHrP+riu9eKn3bkfc
o6AWjIUCwU6S/XJu8MgDKZu4AG7Ag5XINCA2nLPl5OZ2c6MarUCW4FNUAOx2eZrG
DX62vSnsg/PLiaTLbAC6DMV4D/9puJT0BHBDP9ie16f7Xc51jtrnxAexnd5viEu2
TZrP+bz6n80ybfY6Cw0jQnjsl0K/Dk1gVuHTAvIZy4RXkOVwoaKDNYbi2oaf+YrE
ebNSKNrLuzTK09qRSs+NdqKya5v5lv0JKtoRI03wy9aysQ4SbJoZZZiHyuTuJM5E
rJCPnRvFKp0CAwEAAaOCAQ4wggEKMAsGA1UdDwQEAwIFoDAJBgNVHRMEAjAAMBEG
CWCGSAGG+EIBAQQEAwIGQDAzBglghkgBhvhCAQ0EJhYkT3BlblNTTCBHZW5lcmF0
ZWQgU2VydmVyIENlcnRpZmljYXRlMB0GA1UdDgQWBBRNB5Ct/x0N5xrd1i76ujTL
qh8kxjB0BgNVHSMEbTBrgBT0p8DMkUavZPOR8if4yLJviocyc6FIpEYwRDELMAkG
A1UEBhMCREUxDzANBgNVBAgMBkhlc3NlbjEUMBIGA1UECgwLcHJpdmFjeWlkZWEx
DjAMBgNVBAMMBUNBMDAxggkA+8jrrIPNEgcwEwYDVR0lBAwwCgYIKwYBBQUHAwEw
DQYJKoZIhvcNAQELBQADggEBALawD3SQcg4t99pE7HFc4hXQ5ehlCIuAIqtyO5JE
NEaC0jy9C14+r+aFHfu6KPvBqE/GsSSvyMyr7LtBuYasXDpsxmtTluTHKrC1PPOj
d31kHACQjlYm0RZjEE50Z1VnXN3cSalVBK+5V3wkJCQXDFdUvKQ/IKc+Gsu3b+to
a2t0LM6dt8IVrFuWMtbtAy2K1Wq+aDyqmn6dOP+5ZDcq2tJfdbBo6lhyKDpe0+gX
sdOP6Q+cEo57EERs8y7YvQDxWyHP9QfMlVZ24YuouG+LcgRDRJ3i12B+bPqesYgs
RaXuqZVgKr+tLvLkIUAsX/2zzQTbcXJne+RGeVD6A6d2OAs=
-----END CERTIFICATE-----
