Certificate:
    Data:
        Version: 3 (0x2)
        Serial Number: 268435664 (0x100000d0)
    Signature Algorithm: sha256WithRSAEncryption
        Issuer: C=DE, ST=Hessen, O=privacyidea, CN=CA001
        Validity
            Not Before: Mar 27 06:11:17 2018 GMT
            Not After : Mar 27 06:11:17 2019 GMT
        Subject: C=DE, ST=Hessen, O=privacyidea, CN=requester.localdomain
        Subject Public Key Info:
            Public Key Algorithm: rsaEncryption
                Public-Key: (2048 bit)
                Modulus:
                    00:cd:be:14:4f:fa:ce:01:3f:42:22:1b:1d:9c:af:
                    dd:92:d2:7f:db:6c:b7:3e:39:43:43:6b:13:03:f1:
                    05:f4:07:74:bc:76:69:28:0b:af:19:8e:d7:fc:e3:
                    cd:c6:58:f2:ca:7f:08:6d:53:fc:07:02:44:24:c6:
                    b4:34:4c:8c:04:fe:33:0e:40:e2:20:ba:02:73:5a:
                    f7:f5:4f:63:6e:cc:c6:b6:df:54:1d:37:39:7d:51:
                    36:26:5f:bd:dc:3f:a8:8b:6b:a2:ae:b6:9d:d6:21:
                    e7:df:41:b8:7a:28:2a:68:48:ca:a8:2d:ed:e1:e9:
                    46:5e:5a:72:6d:b4:84:38:87:91:fd:94:11:0b:28:
                    84:c6:c2:2f:2a:fb:01:f9:36:7a:09:75:d1:33:88:
                    3c:73:41:5b:c8:bf:94:89:70:a1:f0:c0:b9:2e:50:
                    53:1e:b1:17:64:69:f4:2d:81:e0:a9:0d:0e:32:e9:
                    ba:55:8a:85:f1:1b:6f:49:79:b4:7f:88:c3:0d:3e:
                    54:88:9b:3d:1f:38:8c:04:f3:ee:6a:63:2b:f5:c6:
                    db:b4:83:aa:c4:78:41:3a:7d:4b:e1:c8:3e:71:ca:
                    1b:61:59:ea:c6:c4:ca:32:5e:c9:e9:bf:12:29:e6:
                    c6:c3:63:fe:a0:55:da:7a:f1:60:98:4d:26:ed:fa:
                    70:2d
                Exponent: 65537 (0x10001)
        X509v3 extensions:
            X509v3 Key Usage: 
                Digital Signature, Key Encipherment
            X509v3 Basic Constraints: 
                CA:FALSE
            Netscape Cert Type: 
                SSL Server
            Netscape Comment: 
                OpenSSL Generated Server Certificate
            X509v3 Subject Key Identifier: 
                53:3F:ED:5D:09:07:B3:65:7B:AB:45:C9:24:5B:09:77:80:0A:96:ED
            X509v3 Authority Key Identifier: 
                keyid:F4:A7:C0:CC:91:46:AF:64:F3:91:F2:27:F8:C8:B2:6F:8A:87:32:73
                DirName:/C=DE/ST=Hessen/O=privacyidea/CN=CA001
                serial:FB:C8:EB:AC:83:CD:12:07

            X509v3 Extended Key Usage: 
                TLS Web Server Authentication
    Signature Algorithm: sha256WithRSAEncryption
         33:06:0f:aa:ac:26:04:d6:6b:61:52:37:5a:62:f5:17:e3:b1:
         93:f0:89:25:9f:42:07:9a:d8:40:73:55:7e:9c:f2:d1:8f:a5:
         5c:e0:b0:86:ae:0a:d7:b5:e1:8b:af:c5:93:44:2c:39:fe:62:
         cf:f9:1e:93:fc:10:79:ba:b8:ca:59:a9:bb:c1:4e:4a:b6:7e:
         47:7d:98:47:3a:b0:de:ac:7e:c0:7e:ed:e3:90:ad:fa:54:b0:
         35:07:b9:e6:84:97:e8:fe:b1:92:bf:a2:09:f3:7b:44:c0:a0:
         06:31:2b:a5:50:b5:b9:e4:ed:41:70:67:08:16:4e:63:e6:3c:
         15:30:a6:71:42:a5:07:f0:65:08:47:bc:b9:29:94:e7:74:6c:
         7b:84:85:95:53:79:e4:b5:02:bd:5c:57:73:7c:7f:24:5c:c1:
         3c:18:ed:ed:72:02:b1:6d:c6:9f:99:d8:ca:6e:5e:06:80:e4:
         93:ac:33:97:68:81:27:a7:b8:42:3c:fb:33:00:7d:aa:f4:14:
         48:5f:a4:5c:7e:d0:32:95:55:f0:97:b1:fa:fb:34:7a:c7:4d:
         37:a0:e5:7e:66:76:5c:1b:98:d3:6d:8d:08:e6:15:21:b0:80:
         03:1c:38:8d:d9:5c:e6:49:1c:26:c3:ea:87:75:c8:1a:18:74:
         5f:75:78:49
-----BEGIN CERTIFICATE-----
MIIEJjCCAw6gAwIBAgIEEAAA0DANBgkqhkiG9w0BAQsFADBEMQswCQYDVQQGEwJE
RTEPMA0GA1UECAwGSGVzc2VuMRQwEgYDVQQKDAtwcml2YWN5aWRlYTEOMAwGA1UE
AwwFQ0EwMDEwHhcNMTgwMzI3MDYxMTE3WhcNMTkwMzI3MDYxMTE3WjBUMQswCQYD
VQQGEwJERTEPMA0GA1UECAwGSGVzc2VuMRQwEgYDVQQKDAtwcml2YWN5aWRlYTEe
MBwGA1UEAwwVcmVxdWVzdGVyLmxvY2FsZG9tYWluMIIBIjANBgkqhkiG9w0BAQEF
AAOCAQ8AMIIBCgKCAQEAzb4UT/rOAT9CIhsdnK/dktJ/22y3PjlDQ2sTA/EF9Ad0
vHZpKAuvGY7X/OPNxljyyn8IbVP8BwJEJMa0NEyMBP4zDkDiILoCc1r39U9jbszG
tt9UHTc5fVE2Jl+93D+oi2uirrad1iHn30G4eigqaEjKqC3t4elGXlpybbSEOIeR
/ZQRCyiExsIvKvsB+TZ6CXXRM4g8c0FbyL+UiXCh8MC5LlBTHrEXZGn0LYHgqQ0O
Mum6VYqF8RtvSXm0f4jDDT5UiJs9HziMBPPuamMr9cbbtIOqxHhBOn1L4cg+ccob
YVnqxsTKMl7J6b8SKebGw2P+oFXaevFgmE0m7fpwLQIDAQABo4IBDjCCAQowCwYD
VR0PBAQDAgWgMAkGA1UdEwQCMAAwEQYJYIZIAYb4QgEBBAQDAgZAMDMGCWCGSAGG
+EIBDQQmFiRPcGVuU1NMIEdlbmVyYXRlZCBTZXJ2ZXIgQ2VydGlmaWNhdGUwHQYD
VR0OBBYEFFM/7V0JB7Nle6tFySRbCXeACpbtMHQGA1UdIwRtMGuAFPSnwMyRRq9k
85HyJ/jIsm+KhzJzoUikRjBEMQswCQYDVQQGEwJERTEPMA0GA1UECAwGSGVzc2Vu
MRQwEgYDVQQKDAtwcml2YWN5aWRlYTEOMAwGA1UEAwwFQ0EwMDGCCQD7yOusg80S
BzATBgNVHSUEDDAKBggrBgEFBQcDATANBgkqhkiG9w0BAQsFAAOCAQEAMwYPqqwm
BNZrYVI3WmL1F+Oxk/CJJZ9CB5rYQHNVfpzy0Y+lXOCwhq4K17Xhi6/Fk0QsOf5i
z/kek/wQebq4ylmpu8FOSrZ+R32YRzqw3qx+wH7t45Ct+lSwNQe55oSX6P6xkr+i
CfN7RMCgBjErpVC1ueTtQXBnCBZOY+Y8FTCmcUKlB/BlCEe8uSmU53Rse4SFlVN5
5LUCvVxXc3x/JFzBPBjt7XICsW3Gn5nYym5eBoDkk6wzl2iBJ6e4Qjz7MwB9qvQU
SF+kXH7QMpVV8Jex+vs0esdNN6DlfmZ2XBuY022NCOYVIbCAAxw4jdlc5kkcJsPq
h3XIGhh0X3V4SQ==
-----END CERTIFICATE-----
