Certificate:
    Data:
        Version: 3 (0x2)
        Serial Number: 268435667 (0x100000d3)
    Signature Algorithm: sha256WithRSAEncryption
        Issuer: C=DE, ST=Hessen, O=privacyidea, CN=CA001
        Validity
            Not Before: Mar 27 06:13:38 2018 GMT
            Not After : Mar 27 06:13:38 2019 GMT
        Subject: CN=Steve Test/emailAddress=steve@openssl.org
        Subject Public Key Info:
            Public Key Algorithm: rsaEncryption
                Public-Key: (2048 bit)
                Modulus:
                    00:d2:81:89:20:51:48:0f:73:f4:11:32:24:d5:1f:
                    1c:fd:5c:f5:b6:e6:c5:f0:52:81:dc:d2:af:66:4a:
                    7c:93:31:61:5c:af:d1:6d:06:70:03:60:7c:72:0c:
                    88:dd:49:cd:9e:02:6c:d2:5a:d7:53:0f:f3:da:be:
                    69:64:b5:0f:0c:00:e3:b3:50:47:a3:b3:9b:ba:13:
                    50:d6:58:5a:4b:ab:39:e0:11:ca:0a:27:67:03:78:
                    22:66:6d:92:1e:1b:5c:49:ae:e6:6b:d1:8e:3b:9d:
                    06:d3:c6:ac:4d:53:43:10:ab:e8:96:c1:87:82:97:
                    99:8f:20:d3:99:12:37:31:84:e1:8a:ff:29:03:5f:
                    22:90:3e:7f:9b:e0:20:c1:ad:dc:ae:4c:39:1a:31:
                    96:17:02:8c:b2:d9:b4:0d:20:12:9b:7d:86:54:fd:
                    33:fd:c1:2a:62:46:f8:60:96:cf:6e:01:6f:22:df:
                    13:47:e7:97:ec:05:72:23:a3:62:f8:fa:ef:ac:9c:
                    72:f0:37:cb:2f:37:cf:90:a8:27:51:86:c6:d7:78:
                    08:8f:7e:25:a2:15:70:a2:fb:1c:b6:15:5e:a0:97:
                    8b:81:4c:09:28:8a:27:3b:94:bc:71:db:5b:71:37:
                    9a:2b:16:e0:6f:b5:c9:f5:4b:4f:20:ba:65:cf:af:
                    ad:ad
                Exponent: 65537 (0x10001)
        X509v3 extensions:
            X509v3 Key Usage: 
                Digital Signature, Key Encipherment
            X509v3 Basic Constraints: 
                CA:FALSE
            Netscape Cert Type: 
                SSL Server
            Netscape Comment: 
                OpenSSL Generated Server Certificate
            X509v3 Subject Key Identifier: 
                E5:25:6D:3E:AF:0D:DD:3F:4C:F2:45:19:39:D5:14:DB:7E:9C:C0:AD
            X509v3 Authority Key Identifier: 
                keyid:F4:A7:C0:CC:91:46:AF:64:F3:91:F2:27:F8:C8:B2:6F:8A:87:32:73
                DirName:/C=DE/ST=Hessen/O=privacyidea/CN=CA001
                serial:FB:C8:EB:AC:83:CD:12:07

            X509v3 Extended Key Usage: 
                TLS Web Server Authentication
    Signature Algorithm: sha256WithRSAEncryption
         98:71:4f:30:8b:83:e0:39:3e:a8:f8:9e:77:5a:2b:0c:79:8b:
         7f:55:45:63:b8:48:6f:8d:78:08:14:86:b7:bd:86:aa:a6:06:
         55:77:43:08:a1:f0:8a:ce:bc:4c:2b:fe:7d:95:cb:94:32:cc:
         fb:d5:48:37:ab:19:1c:9f:bd:e2:4e:7f:69:f2:96:10:3b:fb:
         d7:e9:e0:99:d6:97:aa:7a:f4:1f:07:05:62:17:65:73:e9:4c:
         99:a8:94:bf:51:81:f8:0f:83:76:12:3d:e6:9e:cc:a6:20:7c:
         55:f6:5c:ec:df:ed:30:c5:55:ad:b9:a5:dd:20:5c:72:24:3c:
         df:e6:5f:bc:fe:bc:6a:db:8a:20:71:65:5b:7f:91:9c:19:08:
         e7:0d:47:84:68:85:59:c5:01:8b:e3:87:25:5e:1b:65:a9:4e:
         93:e3:18:d0:69:d8:3a:d0:5b:07:0e:4c:e3:d6:19:8d:b6:c1:
         16:cf:e7:db:0e:b3:94:f3:23:39:21:de:06:92:04:b0:d1:f4:
         a1:7d:cc:29:b2:cd:fc:c0:03:57:2f:5d:db:dd:47:54:5e:f1:
         b1:fb:65:3d:a1:c8:00:fc:6e:32:12:6e:0f:40:20:9e:21:3e:
         f4:4f:f6:fc:40:3a:37:e7:48:42:8e:cf:40:77:46:07:ed:75:
         ee:5c:9a:01
-----BEGIN CERTIFICATE-----
MIIECTCCAvGgAwIBAgIEEAAA0zANBgkqhkiG9w0BAQsFADBEMQswCQYDVQQGEwJE
RTEPMA0GA1UECAwGSGVzc2VuMRQwEgYDVQQKDAtwcml2YWN5aWRlYTEOMAwGA1UE
AwwFQ0EwMDEwHhcNMTgwMzI3MDYxMzM4WhcNMTkwMzI3MDYxMzM4WjA3MRMwEQYD
VQQDDApTdGV2ZSBUZXN0MSAwHgYJKoZIhvcNAQkBFhFzdGV2ZUBvcGVuc3NsLm9y
ZzCCASIwDQYJKoZIhvcNAQEBBQADggEPADCCAQoCggEBANKBiSBRSA9z9BEyJNUf
HP1c9bbmxfBSgdzSr2ZKfJMxYVyv0W0GcANgfHIMiN1JzZ4CbNJa11MP89q+aWS1
DwwA47NQR6Ozm7oTUNZYWkurOeARygonZwN4ImZtkh4bXEmu5mvRjjudBtPGrE1T
QxCr6JbBh4KXmY8g05kSNzGE4Yr/KQNfIpA+f5vgIMGt3K5MORoxlhcCjLLZtA0g
Ept9hlT9M/3BKmJG+GCWz24BbyLfE0fnl+wFciOjYvj676yccvA3yy83z5CoJ1GG
xtd4CI9+JaIVcKL7HLYVXqCXi4FMCSiKJzuUvHHbW3E3misW4G+1yfVLTyC6Zc+v
ra0CAwEAAaOCAQ4wggEKMAsGA1UdDwQEAwIFoDAJBgNVHRMEAjAAMBEGCWCGSAGG
+EIBAQQEAwIGQDAzBglghkgBhvhCAQ0EJhYkT3BlblNTTCBHZW5lcmF0ZWQgU2Vy
dmVyIENlcnRpZmljYXRlMB0GA1UdDgQWBBTlJW0+rw3dP0zyRRk51RTbfpzArTB0
BgNVHSMEbTBrgBT0p8DMkUavZPOR8if4yLJviocyc6FIpEYwRDELMAkGA1UEBhMC
REUxDzANBgNVBAgMBkhlc3NlbjEUMBIGA1UECgwLcHJpdmFjeWlkZWExDjAMBgNV
BAMMBUNBMDAxggkA+8jrrIPNEgcwEwYDVR0lBAwwCgYIKwYBBQUHAwEwDQYJKoZI
hvcNAQELBQADggEBAJhxTzCLg+A5Pqj4nndaKwx5i39VRWO4SG+NeAgUhre9hqqm
BlV3Qwih8IrOvEwr/n2Vy5QyzPvVSDerGRyfveJOf2nylhA7+9fp4JnWl6p69B8H
BWIXZXPpTJmolL9RgfgPg3YSPeaezKYgfFX2XOzf7TDFVa25pd0gXHIkPN/mX7z+
vGrbiiBxZVt/kZwZCOcNR4RohVnFAYvjhyVeG2WpTpPjGNBp2DrQWwcOTOPWGY22
wRbP59sOs5TzIzkh3gaSBLDR9KF9zCmyzfzAA1cvXdvdR1Re8bH7ZT2hyAD8bjIS
bg9AIJ4hPvRP9vxAOjfnSEKOz0B3Rgftde5cmgE=
-----END CERTIFICATE-----
