Certificate:
    Data:
        Version: 3 (0x2)
        Serial Number: 268435676 (0x100000dc)
    Signature Algorithm: sha256WithRSAEncryption
        Issuer: C=DE, ST=Hessen, O=privacyidea, CN=CA001
        Validity
            Not Before: Jan 22 13:09:27 2018 GMT
            Not After : Jan 22 13:09:27 2019 GMT
        Subject: OU=realm1, CN=cornelius/emailAddress=user@localhost.localdomain
        Subject Public Key Info:
            Public Key Algorithm: rsaEncryption
                Public-Key: (2048 bit)
                Modulus:
                    00:ab:87:5a:58:12:49:df:3c:ef:0c:3b:b3:20:d1:
                    43:0d:2d:e3:61:3a:98:c0:b3:c6:1c:37:17:3a:c9:
                    37:30:62:2c:a0:c8:a4:6e:00:84:fe:09:ba:a0:5f:
                    70:0c:84:7e:07:fb:c2:2c:ba:e2:3e:3b:52:03:34:
                    27:c9:1a:b4:c1:84:c8:18:16:26:58:ea:62:7e:24:
                    4c:fa:5d:d7:17:14:d1:86:3a:0b:9f:8c:50:18:23:
                    3a:81:5b:a1:0b:59:fc:ea:01:9a:6c:68:3f:5b:b4:
                    20:7f:3c:ff:3a:64:39:18:92:1a:32:93:21:a9:fa:
                    be:d9:dd:03:08:2a:93:ce:90:81:4f:e6:73:73:6e:
                    73:7a:2e:08:4a:92:b5:a7:bf:b9:43:56:2c:45:4b:
                    98:42:30:48:81:92:fb:a7:6b:e4:ed:a9:22:55:a2:
                    c2:1d:5a:c8:2b:e1:7b:fc:8b:3b:08:df:a9:7a:67:
                    a7:50:2f:35:5d:10:fb:01:cd:39:55:58:4f:b6:36:
                    b6:26:17:11:18:b6:3c:ef:de:12:c1:d2:8f:62:ed:
                    8d:79:56:79:4e:af:fe:72:08:d3:6b:54:f3:10:36:
                    fa:ec:3c:8e:2a:e4:ab:ae:de:e2:8f:2e:96:24:1c:
                    5c:93:13:0c:1a:d1:b2:b5:63:45:67:3a:ba:b2:14:
                    14:61
                Exponent: 65537 (0x10001)
        X509v3 extensions:
            X509v3 Key Usage: 
                Digital Signature, Key Encipherment
            X509v3 Basic Constraints: 
                CA:FALSE
            Netscape Cert Type: 
                SSL Server
            Netscape Comment: 
                OpenSSL Generated Server Certificate
            X509v3 Subject Key Identifier: 
                09:4E:63:41:95:82:81:03:1F:64:A2:FA:15:56:CE:99:B9:4C:7D:D4
            X509v3 Authority Key Identifier: 
                keyid:F4:A7:C0:CC:91:46:AF:64:F3:91:F2:27:F8:C8:B2:6F:8A:87:32:73
                DirName:/C=DE/ST=Hessen/O=privacyidea/CN=CA001
                serial:FB:C8:EB:AC:83:CD:12:07

            X509v3 Extended Key Usage: 
                TLS Web Server Authentication
    Signature Algorithm: sha256WithRSAEncryption
         7f:ce:8b:e7:25:28:a0:7d:b6:f2:37:a6:4a:4e:c6:8f:9b:85:
         6b:e8:ab:61:02:0c:b8:07:71:c2:a9:76:c6:1a:7f:a3:1e:fe:
         ca:9d:38:4f:08:19:d4:f6:e8:82:69:e7:6d:31:c1:6b:a9:cb:
         dc:be:9f:ff:11:81:60:dc:3c:1b:c1:2d:74:72:8c:cb:24:80:
         50:05:c9:28:b0:19:76:43:59:a7:34:94:91:18:7e:28:be:7b:
         dc:e5:4d:c8:53:98:e4:89:b6:43:4f:59:cf:ef:4f:9f:36:2e:
         0e:b1:62:0a:18:b0:fd:e7:98:ec:82:e4:fd:20:ec:40:96:62:
         b1:23:e9:10:5a:57:53:31:9d:4b:48:65:73:54:7a:de:58:5d:
         fb:72:9b:3c:8a:2f:19:25:c4:01:c8:29:ea:8a:c0:09:5e:2a:
         cc:d0:b4:4e:03:e1:0f:a8:d7:99:34:ba:6f:9e:07:0a:17:b0:
         04:03:45:7d:d8:f9:57:c0:0e:73:4d:7b:4c:38:b5:d3:b9:49:
         be:21:68:40:44:55:c1:48:26:85:d5:d7:b2:31:d8:01:1f:8c:
         d5:68:31:cb:98:86:56:8a:76:99:d6:74:ba:7f:7e:cb:d4:23:
         a7:18:cd:c3:52:3e:54:c9:5e:c8:66:88:8e:be:7b:52:e1:9b:
         c4:26:71:4e
-----BEGIN CERTIFICATE-----
MIIEIjCCAwqgAwIBAgIEEAAA3DANBgkqhkiG9w0BAQsFADBEMQswCQYDVQQGEwJE
RTEPMA0GA1UECAwGSGVzc2VuMRQwEgYDVQQKDAtwcml2YWN5aWRlYTEOMAwGA1UE
AwwFQ0EwMDEwHhcNMTgwMTIyMTMwOTI3WhcNMTkwMTIyMTMwOTI3WjBQMQ8wDQYD
VQQLDAZyZWFsbTExEjAQBgNVBAMMCWNvcm5lbGl1czEpMCcGCSqGSIb3DQEJARYa
dXNlckBsb2NhbGhvc3QubG9jYWxkb21haW4wggEiMA0GCSqGSIb3DQEBAQUAA4IB
DwAwggEKAoIBAQCrh1pYEknfPO8MO7Mg0UMNLeNhOpjAs8YcNxc6yTcwYiygyKRu
AIT+CbqgX3AMhH4H+8IsuuI+O1IDNCfJGrTBhMgYFiZY6mJ+JEz6XdcXFNGGOguf
jFAYIzqBW6ELWfzqAZpsaD9btCB/PP86ZDkYkhoykyGp+r7Z3QMIKpPOkIFP5nNz
bnN6LghKkrWnv7lDVixFS5hCMEiBkvuna+TtqSJVosIdWsgr4Xv8izsI36l6Z6dQ
LzVdEPsBzTlVWE+2NrYmFxEYtjzv3hLB0o9i7Y15VnlOr/5yCNNrVPMQNvrsPI4q
5Kuu3uKPLpYkHFyTEwwa0bK1Y0VnOrqyFBRhAgMBAAGjggEOMIIBCjALBgNVHQ8E
BAMCBaAwCQYDVR0TBAIwADARBglghkgBhvhCAQEEBAMCBkAwMwYJYIZIAYb4QgEN
BCYWJE9wZW5TU0wgR2VuZXJhdGVkIFNlcnZlciBDZXJ0aWZpY2F0ZTAdBgNVHQ4E
FgQUCU5jQZWCgQMfZKL6FVbOmblMfdQwdAYDVR0jBG0wa4AU9KfAzJFGr2TzkfIn
+Miyb4qHMnOhSKRGMEQxCzAJBgNVBAYTAkRFMQ8wDQYDVQQIDAZIZXNzZW4xFDAS
BgNVBAoMC3ByaXZhY3lpZGVhMQ4wDAYDVQQDDAVDQTAwMYIJAPvI66yDzRIHMBMG
A1UdJQQMMAoGCCsGAQUFBwMBMA0GCSqGSIb3DQEBCwUAA4IBAQB/zovnJSigfbby
N6ZKTsaPm4Vr6KthAgy4B3HCqXbGGn+jHv7KnThPCBnU9uiCaedtMcFrqcvcvp//
EYFg3DwbwS10cozLJIBQBckosBl2Q1mnNJSRGH4ovnvc5U3IU5jkibZDT1nP70+f
Ni4OsWIKGLD955jsguT9IOxAlmKxI+kQWldTMZ1LSGVzVHreWF37cps8ii8ZJcQB
yCnqisAJXirM0LROA+EPqNeZNLpvngcKF7AEA0V92PlXwA5zTXtMOLXTuUm+IWhA
RFXBSCaF1deyMdgBH4zVaDHLmIZWinaZ1nS6f37L1COnGM3DUj5UyV7IZoiOvntS
4ZvEJnFO
-----END CERTIFICATE-----
