Certificate:
    Data:
        Version: 3 (0x2)
        Serial Number: 268435678 (0x100000de)
    Signature Algorithm: sha256WithRSAEncryption
        Issuer: C=DE, ST=Hessen, O=privacyidea, CN=CA001
        Validity
            Not Before: Jan 22 13:35:18 2018 GMT
            Not After : Jan 22 13:35:18 2019 GMT
        Subject: C=DE, ST=Hessen, O=privacyidea, CN=requester.localdomain
        Subject Public Key Info:
            Public Key Algorithm: rsaEncryption
                Public-Key: (2048 bit)
                Modulus:
                    00:cd:be:14:4f:fa:ce:01:3f:42:22:1b:1d:9c:af:
                    dd:92:d2:7f:db:6c:b7:3e:39:43:43:6b:13:03:f1:
                    05:f4:07:74:bc:76:69:28:0b:af:19:8e:d7:fc:e3:
                    cd:c6:58:f2:ca:7f:08:6d:53:fc:07:02:44:24:c6:
                    b4:34:4c:8c:04:fe:33:0e:40:e2:20:ba:02:73:5a:
                    f7:f5:4f:63:6e:cc:c6:b6:df:54:1d:37:39:7d:51:
                    36:26:5f:bd:dc:3f:a8:8b:6b:a2:ae:b6:9d:d6:21:
                    e7:df:41:b8:7a:28:2a:68:48:ca:a8:2d:ed:e1:e9:
                    46:5e:5a:72:6d:b4:84:38:87:91:fd:94:11:0b:28:
                    84:c6:c2:2f:2a:fb:01:f9:36:7a:09:75:d1:33:88:
                    3c:73:41:5b:c8:bf:94:89:70:a1:f0:c0:b9:2e:50:
                    53:1e:b1:17:64:69:f4:2d:81:e0:a9:0d:0e:32:e9:
                    ba:55:8a:85:f1:1b:6f:49:79:b4:7f:88:c3:0d:3e:
                    54:88:9b:3d:1f:38:8c:04:f3:ee:6a:63:2b:f5:c6:
                    db:b4:83:aa:c4:78:41:3a:7d:4b:e1:c8:3e:71:ca:
                    1b:61:59:ea:c6:c4:ca:32:5e:c9:e9:bf:12:29:e6:
                    c6:c3:63:fe:a0:55:da:7a:f1:60:98:4d:26:ed:fa:
                    70:2d
                Exponent: 65537 (0x10001)
        X509v3 extensions:
            X509v3 Key Usage: 
                Digital Signature, Key Encipherment
            X509v3 Basic Constraints: 
                CA:FALSE
            Netscape Cert Type: 
                SSL Server
            Netscape Comment: 
                OpenSSL Generated Server Certificate
            X509v3 Subject Key Identifier: 
                53:3F:ED:5D:09:07:B3:65:7B:AB:45:C9:24:5B:09:77:80:0A:96:ED
            X509v3 Authority Key Identifier: 
                keyid:F4:A7:C0:CC:91:46:AF:64:F3:91:F2:27:F8:C8:B2:6F:8A:87:32:73
                DirName:/C=DE/ST=Hessen/O=privacyidea/CN=CA001
                serial:FB:C8:EB:AC:83:CD:12:07

            X509v3 Extended Key Usage: 
                TLS Web Server Authentication
    Signature Algorithm: sha256WithRSAEncryption
         33:ac:ac:a1:34:b6:cf:fb:38:9c:4a:a3:a2:ce:19:5c:ce:36:
         97:28:3c:ec:50:e8:53:82:4b:63:47:87:3c:e3:50:82:94:c0:
         e6:c7:a5:52:18:be:2c:db:35:a4:db:76:14:f3:4a:94:c2:d8:
         65:8e:c6:91:7c:8a:11:63:85:9d:11:1e:20:96:7d:70:69:f0:
         45:e0:3e:49:b5:8b:e0:df:11:34:d0:b6:8c:41:3f:a2:d2:9f:
         34:cd:cb:7e:07:25:21:76:ad:92:6e:b0:61:59:03:77:c9:e6:
         8f:48:ac:08:11:75:d3:51:f6:cb:cd:9a:d3:9a:23:95:43:94:
         41:6f:98:87:37:8a:26:4e:79:60:74:d2:2e:49:c0:b7:b5:6a:
         3b:1f:ce:87:40:18:48:94:3a:13:6b:18:31:fe:61:4e:a9:81:
         71:b7:c6:99:05:34:dc:1f:ff:4f:f3:76:5d:83:c5:fa:64:70:
         6a:17:51:d7:ca:c3:8f:86:c4:68:32:ae:0d:41:47:ce:49:7c:
         a5:50:b3:31:72:74:fd:a6:eb:03:6b:f9:83:5f:3e:43:14:28:
         3d:3e:b9:a1:cf:a8:3a:c8:b5:1d:8f:e1:31:73:1a:c2:86:13:
         ae:50:4d:bd:3b:45:d5:28:e3:87:71:be:4d:45:92:51:f5:f6:
         80:e0:92:f8
-----BEGIN CERTIFICATE-----
MIIEJjCCAw6gAwIBAgIEEAAA3jANBgkqhkiG9w0BAQsFADBEMQswCQYDVQQGEwJE
RTEPMA0GA1UECAwGSGVzc2VuMRQwEgYDVQQKDAtwcml2YWN5aWRlYTEOMAwGA1UE
AwwFQ0EwMDEwHhcNMTgwMTIyMTMzNTE4WhcNMTkwMTIyMTMzNTE4WjBUMQswCQYD
VQQGEwJERTEPMA0GA1UECAwGSGVzc2VuMRQwEgYDVQQKDAtwcml2YWN5aWRlYTEe
MBwGA1UEAwwVcmVxdWVzdGVyLmxvY2FsZG9tYWluMIIBIjANBgkqhkiG9w0BAQEF
AAOCAQ8AMIIBCgKCAQEAzb4UT/rOAT9CIhsdnK/dktJ/22y3PjlDQ2sTA/EF9Ad0
vHZpKAuvGY7X/OPNxljyyn8IbVP8BwJEJMa0NEyMBP4zDkDiILoCc1r39U9jbszG
tt9UHTc5fVE2Jl+93D+oi2uirrad1iHn30G4eigqaEjKqC3t4elGXlpybbSEOIeR
/ZQRCyiExsIvKvsB+TZ6CXXRM4g8c0FbyL+UiXCh8MC5LlBTHrEXZGn0LYHgqQ0O
Mum6VYqF8RtvSXm0f4jDDT5UiJs9HziMBPPuamMr9cbbtIOqxHhBOn1L4cg+ccob
YVnqxsTKMl7J6b8SKebGw2P+oFXaevFgmE0m7fpwLQIDAQABo4IBDjCCAQowCwYD
VR0PBAQDAgWgMAkGA1UdEwQCMAAwEQYJYIZIAYb4QgEBBAQDAgZAMDMGCWCGSAGG
+EIBDQQmFiRPcGVuU1NMIEdlbmVyYXRlZCBTZXJ2ZXIgQ2VydGlmaWNhdGUwHQYD
VR0OBBYEFFM/7V0JB7Nle6tFySRbCXeACpbtMHQGA1UdIwRtMGuAFPSnwMyRRq9k
85HyJ/jIsm+KhzJzoUikRjBEMQswCQYDVQQGEwJERTEPMA0GA1UECAwGSGVzc2Vu
MRQwEgYDVQQKDAtwcml2YWN5aWRlYTEOMAwGA1UEAwwFQ0EwMDGCCQD7yOusg80S
BzATBgNVHSUEDDAKBggrBgEFBQcDATANBgkqhkiG9w0BAQsFAAOCAQEAM6ysoTS2
z/s4nEqjos4ZXM42lyg87FDoU4JLY0eHPONQgpTA5selUhi+LNs1pNt2FPNKlMLY
ZY7GkXyKEWOFnREeIJZ9cGnwReA+SbWL4N8RNNC2jEE/otKfNM3LfgclIXatkm6w
YVkDd8nmj0isCBF101H2y82a05ojlUOUQW+YhzeKJk55YHTSLknAt7VqOx/Oh0AY
SJQ6E2sYMf5hTqmBcbfGmQU03B//T/N2XYPF+mRwahdR18rDj4bEaDKuDUFHzkl8
pVCzMXJ0/abrA2v5g18+QxQoPT65oc+oOsi1HY/hMXMawoYTrlBNvTtF1Sjjh3G+
TUWSUfX2gOCS+A==
-----END CERTIFICATE-----
