Certificate:
    Data:
        Version: 3 (0x2)
        Serial Number: 268435677 (0x100000dd)
    Signature Algorithm: sha256WithRSAEncryption
        Issuer: C=DE, ST=Hessen, O=privacyidea, CN=CA001
        Validity
            Not Before: Jan 22 13:33:05 2018 GMT
            Not After : Jan 22 13:33:05 2019 GMT
        Subject: C=DE, ST=Hessen, O=privacyidea, CN=requester.localdomain
        Subject Public Key Info:
            Public Key Algorithm: rsaEncryption
                Public-Key: (2048 bit)
                Modulus:
                    00:cd:be:14:4f:fa:ce:01:3f:42:22:1b:1d:9c:af:
                    dd:92:d2:7f:db:6c:b7:3e:39:43:43:6b:13:03:f1:
                    05:f4:07:74:bc:76:69:28:0b:af:19:8e:d7:fc:e3:
                    cd:c6:58:f2:ca:7f:08:6d:53:fc:07:02:44:24:c6:
                    b4:34:4c:8c:04:fe:33:0e:40:e2:20:ba:02:73:5a:
                    f7:f5:4f:63:6e:cc:c6:b6:df:54:1d:37:39:7d:51:
                    36:26:5f:bd:dc:3f:a8:8b:6b:a2:ae:b6:9d:d6:21:
                    e7:df:41:b8:7a:28:2a:68:48:ca:a8:2d:ed:e1:e9:
                    46:5e:5a:72:6d:b4:84:38:87:91:fd:94:11:0b:28:
                    84:c6:c2:2f:2a:fb:01:f9:36:7a:09:75:d1:33:88:
                    3c:73:41:5b:c8:bf:94:89:70:a1:f0:c0:b9:2e:50:
                    53:1e:b1:17:64:69:f4:2d:81:e0:a9:0d:0e:32:e9:
                    ba:55:8a:85:f1:1b:6f:49:79:b4:7f:88:c3:0d:3e:
                    54:88:9b:3d:1f:38:8c:04:f3:ee:6a:63:2b:f5:c6:
                    db:b4:83:aa:c4:78:41:3a:7d:4b:e1:c8:3e:71:ca:
                    1b:61:59:ea:c6:c4:ca:32:5e:c9:e9:bf:12:29:e6:
                    c6:c3:63:fe:a0:55:da:7a:f1:60:98:4d:26:ed:fa:
                    70:2d
                Exponent: 65537 (0x10001)
        X509v3 extensions:
            X509v3 Key Usage: 
                Digital Signature, Key Encipherment
            X509v3 Basic Constraints: 
                CA:FALSE
            Netscape Cert Type: 
                SSL Server
            Netscape Comment: 
                OpenSSL Generated Server Certificate
            X509v3 Subject Key Identifier: 
                53:3F:ED:5D:09:07:B3:65:7B:AB:45:C9:24:5B:09:77:80:0A:96:ED
            X509v3 Authority Key Identifier: 
                keyid:F4:A7:C0:CC:91:46:AF:64:F3:91:F2:27:F8:C8:B2:6F:8A:87:32:73
                DirName:/C=DE/ST=Hessen/O=privacyidea/CN=CA001
                serial:FB:C8:EB:AC:83:CD:12:07

            X509v3 Extended Key Usage: 
                TLS Web Server Authentication
    Signature Algorithm: sha256WithRSAEncryption
         02:ac:db:c4:cd:6b:cb:d1:82:9a:3a:d9:41:79:51:51:9c:aa:
         40:d5:04:65:9c:18:dc:c8:7e:17:3a:8f:75:31:ad:42:10:4b:
         7b:a9:e2:c7:fa:fd:9b:dc:78:4b:3c:26:6e:f0:e9:66:67:36:
         79:ba:5c:b0:2f:2d:f4:0e:48:8f:e6:ba:e3:9b:f5:73:f2:58:
         83:6e:b7:46:5a:f9:6f:29:30:15:4d:69:84:c2:88:25:1b:b5:
         51:96:82:71:f7:fa:ea:d8:c1:05:16:f4:d8:6c:33:76:1a:3e:
         64:65:a2:8f:2e:22:79:cd:0d:cf:39:65:ea:ca:39:53:e0:a6:
         2f:4f:f6:06:c4:b7:ce:70:f9:d6:c0:81:55:37:c9:4f:4c:c7:
         cf:2b:9d:aa:5d:23:a9:c9:d4:46:f6:72:a6:c1:d4:f2:c4:c3:
         44:a2:eb:95:46:68:19:79:a8:36:ec:92:9b:3f:0f:d7:f2:57:
         3e:1b:0b:7c:64:86:6b:b4:7a:0e:ca:81:83:86:74:0e:51:ef:
         62:67:de:90:69:1b:df:b0:f9:75:22:e3:9b:16:25:c9:e1:ff:
         4c:57:9d:a5:e9:75:09:e5:61:ef:aa:ab:9c:c9:f3:7c:6c:a2:
         2f:66:22:87:27:6f:4a:e0:9c:6f:d7:94:bc:bf:a2:e8:b9:dd:
         41:ad:2e:1d
-----BEGIN CERTIFICATE-----
MIIEJjCCAw6gAwIBAgIEEAAA3TANBgkqhkiG9w0BAQsFADBEMQswCQYDVQQGEwJE
RTEPMA0GA1UECAwGSGVzc2VuMRQwEgYDVQQKDAtwcml2YWN5aWRlYTEOMAwGA1UE
AwwFQ0EwMDEwHhcNMTgwMTIyMTMzMzA1WhcNMTkwMTIyMTMzMzA1WjBUMQswCQYD
VQQGEwJERTEPMA0GA1UECAwGSGVzc2VuMRQwEgYDVQQKDAtwcml2YWN5aWRlYTEe
MBwGA1UEAwwVcmVxdWVzdGVyLmxvY2FsZG9tYWluMIIBIjANBgkqhkiG9w0BAQEF
AAOCAQ8AMIIBCgKCAQEAzb4UT/rOAT9CIhsdnK/dktJ/22y3PjlDQ2sTA/EF9Ad0
vHZpKAuvGY7X/OPNxljyyn8IbVP8BwJEJMa0NEyMBP4zDkDiILoCc1r39U9jbszG
tt9UHTc5fVE2Jl+93D+oi2uirrad1iHn30G4eigqaEjKqC3t4elGXlpybbSEOIeR
/ZQRCyiExsIvKvsB+TZ6CXXRM4g8c0FbyL+UiXCh8MC5LlBTHrEXZGn0LYHgqQ0O
Mum6VYqF8RtvSXm0f4jDDT5UiJs9HziMBPPuamMr9cbbtIOqxHhBOn1L4cg+ccob
YVnqxsTKMl7J6b8SKebGw2P+oFXaevFgmE0m7fpwLQIDAQABo4IBDjCCAQowCwYD
VR0PBAQDAgWgMAkGA1UdEwQCMAAwEQYJYIZIAYb4QgEBBAQDAgZAMDMGCWCGSAGG
+EIBDQQmFiRPcGVuU1NMIEdlbmVyYXRlZCBTZXJ2ZXIgQ2VydGlmaWNhdGUwHQYD
VR0OBBYEFFM/7V0JB7Nle6tFySRbCXeACpbtMHQGA1UdIwRtMGuAFPSnwMyRRq9k
85HyJ/jIsm+KhzJzoUikRjBEMQswCQYDVQQGEwJERTEPMA0GA1UECAwGSGVzc2Vu
MRQwEgYDVQQKDAtwcml2YWN5aWRlYTEOMAwGA1UEAwwFQ0EwMDGCCQD7yOusg80S
BzATBgNVHSUEDDAKBggrBgEFBQcDATANBgkqhkiG9w0BAQsFAAOCAQEAAqzbxM1r
y9GCmjrZQXlRUZyqQNUEZZwY3Mh+FzqPdTGtQhBLe6nix/r9m9x4SzwmbvDpZmc2
ebpcsC8t9A5Ij+a645v1c/JYg263Rlr5bykwFU1phMKIJRu1UZaCcff66tjBBRb0
2Gwzdho+ZGWijy4iec0Nzzll6so5U+CmL0/2BsS3znD51sCBVTfJT0zHzyudql0j
qcnURvZypsHU8sTDRKLrlUZoGXmoNuySmz8P1/JXPhsLfGSGa7R6DsqBg4Z0DlHv
YmfekGkb37D5dSLjmxYlyeH/TFedpel1CeVh76qrnMnzfGyiL2YihydvSuCcb9eU
vL+i6LndQa0uHQ==
-----END CERTIFICATE-----
