Certificate:
    Data:
        Version: 3 (0x2)
        Serial Number: 268435668 (0x100000d4)
    Signature Algorithm: sha256WithRSAEncryption
        Issuer: C=DE, ST=Hessen, O=privacyidea, CN=CA001
        Validity
            Not Before: Mar 27 06:13:38 2018 GMT
            Not After : Apr 15 06:13:38 2020 GMT
        Subject: CN=Steve Test/emailAddress=steve@openssl.org
        Subject Public Key Info:
            Public Key Algorithm: rsaEncryption
                Public-Key: (2048 bit)
                Modulus:
                    00:d2:81:89:20:51:48:0f:73:f4:11:32:24:d5:1f:
                    1c:fd:5c:f5:b6:e6:c5:f0:52:81:dc:d2:af:66:4a:
                    7c:93:31:61:5c:af:d1:6d:06:70:03:60:7c:72:0c:
                    88:dd:49:cd:9e:02:6c:d2:5a:d7:53:0f:f3:da:be:
                    69:64:b5:0f:0c:00:e3:b3:50:47:a3:b3:9b:ba:13:
                    50:d6:58:5a:4b:ab:39:e0:11:ca:0a:27:67:03:78:
                    22:66:6d:92:1e:1b:5c:49:ae:e6:6b:d1:8e:3b:9d:
                    06:d3:c6:ac:4d:53:43:10:ab:e8:96:c1:87:82:97:
                    99:8f:20:d3:99:12:37:31:84:e1:8a:ff:29:03:5f:
                    22:90:3e:7f:9b:e0:20:c1:ad:dc:ae:4c:39:1a:31:
                    96:17:02:8c:b2:d9:b4:0d:20:12:9b:7d:86:54:fd:
                    33:fd:c1:2a:62:46:f8:60:96:cf:6e:01:6f:22:df:
                    13:47:e7:97:ec:05:72:23:a3:62:f8:fa:ef:ac:9c:
                    72:f0:37:cb:2f:37:cf:90:a8:27:51:86:c6:d7:78:
                    08:8f:7e:25:a2:15:70:a2:fb:1c:b6:15:5e:a0:97:
                    8b:81:4c:09:28:8a:27:3b:94:bc:71:db:5b:71:37:
                    9a:2b:16:e0:6f:b5:c9:f5:4b:4f:20:ba:65:cf:af:
                    ad:ad
                Exponent: 65537 (0x10001)
        X509v3 extensions:
            X509v3 Key Usage: 
                Digital Signature, Key Encipherment
            X509v3 Basic Constraints: 
                CA:FALSE
            Netscape Cert Type: 
                SSL Server
            Netscape Comment: 
                OpenSSL Generated Server Certificate
            X509v3 Subject Key Identifier: 
                E5:25:6D:3E:AF:0D:DD:3F:4C:F2:45:19:39:D5:14:DB:7E:9C:C0:AD
            X509v3 Authority Key Identifier: 
                keyid:F4:A7:C0:CC:91:46:AF:64:F3:91:F2:27:F8:C8:B2:6F:8A:87:32:73
                DirName:/C=DE/ST=Hessen/O=privacyidea/CN=CA001
                serial:FB:C8:EB:AC:83:CD:12:07

            X509v3 Extended Key Usage: 
                TLS Web Server Authentication
    Signature Algorithm: sha256WithRSAEncryption
         11:a6:3e:e5:2e:a0:e7:1d:2f:ba:04:b0:e2:34:bf:48:c1:4b:
         ea:fd:1a:3c:da:a5:7b:4c:48:10:a0:6d:01:64:c7:e7:fd:75:
         0b:cd:4f:58:1b:9f:28:99:d6:18:41:8a:5a:7d:3d:17:b3:ad:
         b9:24:a8:32:ba:d3:00:5e:56:91:d1:2f:c5:a9:ab:4b:ef:53:
         2a:71:a3:65:6d:5d:26:34:d7:b3:19:ae:15:0e:d2:d1:e5:2e:
         cc:d8:9a:1f:ee:38:bc:4c:d6:b7:1e:0c:3a:84:17:2f:16:1c:
         f2:91:de:18:57:35:bc:af:a4:a1:d3:2f:9b:6a:17:02:a9:fe:
         d4:93:9e:24:40:da:b8:e5:e8:37:47:c5:ab:e8:94:7e:1c:8c:
         d2:65:07:77:0e:4a:a8:6f:d5:27:c0:46:40:c7:48:6c:32:70:
         2b:4e:fb:30:ef:97:c8:80:6a:10:ff:56:3a:b0:8f:c9:18:aa:
         17:1b:d2:14:b8:a7:a8:4b:60:4f:aa:68:2b:3e:7b:27:a8:bc:
         17:f0:0e:06:15:aa:89:2f:f5:f0:27:96:1e:00:2a:23:ec:44:
         7c:7f:d8:97:40:bb:c2:0b:a5:09:22:1a:57:04:68:a3:75:16:
         d7:7b:e8:2d:06:9c:7c:ef:2f:c2:35:c4:a6:c4:aa:9d:3b:24:
         5a:9b:76:10
-----BEGIN CERTIFICATE-----
MIIECTCCAvGgAwIBAgIEEAAA1DANBgkqhkiG9w0BAQsFADBEMQswCQYDVQQGEwJE
RTEPMA0GA1UECAwGSGVzc2VuMRQwEgYDVQQKDAtwcml2YWN5aWRlYTEOMAwGA1UE
AwwFQ0EwMDEwHhcNMTgwMzI3MDYxMzM4WhcNMjAwNDE1MDYxMzM4WjA3MRMwEQYD
VQQDDApTdGV2ZSBUZXN0MSAwHgYJKoZIhvcNAQkBFhFzdGV2ZUBvcGVuc3NsLm9y
ZzCCASIwDQYJKoZIhvcNAQEBBQADggEPADCCAQoCggEBANKBiSBRSA9z9BEyJNUf
HP1c9bbmxfBSgdzSr2ZKfJMxYVyv0W0GcANgfHIMiN1JzZ4CbNJa11MP89q+aWS1
DwwA47NQR6Ozm7oTUNZYWkurOeARygonZwN4ImZtkh4bXEmu5mvRjjudBtPGrE1T
QxCr6JbBh4KXmY8g05kSNzGE4Yr/KQNfIpA+f5vgIMGt3K5MORoxlhcCjLLZtA0g
Ept9hlT9M/3BKmJG+GCWz24BbyLfE0fnl+wFciOjYvj676yccvA3yy83z5CoJ1GG
xtd4CI9+JaIVcKL7HLYVXqCXi4FMCSiKJzuUvHHbW3E3misW4G+1yfVLTyC6Zc+v
ra0CAwEAAaOCAQ4wggEKMAsGA1UdDwQEAwIFoDAJBgNVHRMEAjAAMBEGCWCGSAGG
+EIBAQQEAwIGQDAzBglghkgBhvhCAQ0EJhYkT3BlblNTTCBHZW5lcmF0ZWQgU2Vy
dmVyIENlcnRpZmljYXRlMB0GA1UdDgQWBBTlJW0+rw3dP0zyRRk51RTbfpzArTB0
BgNVHSMEbTBrgBT0p8DMkUavZPOR8if4yLJviocyc6FIpEYwRDELMAkGA1UEBhMC
REUxDzANBgNVBAgMBkhlc3NlbjEUMBIGA1UECgwLcHJpdmFjeWlkZWExDjAMBgNV
BAMMBUNBMDAxggkA+8jrrIPNEgcwEwYDVR0lBAwwCgYIKwYBBQUHAwEwDQYJKoZI
hvcNAQELBQADggEBABGmPuUuoOcdL7oEsOI0v0jBS+r9GjzapXtMSBCgbQFkx+f9
dQvNT1gbnyiZ1hhBilp9PRezrbkkqDK60wBeVpHRL8Wpq0vvUypxo2VtXSY017MZ
rhUO0tHlLszYmh/uOLxM1rceDDqEFy8WHPKR3hhXNbyvpKHTL5tqFwKp/tSTniRA
2rjl6DdHxavolH4cjNJlB3cOSqhv1SfARkDHSGwycCtO+zDvl8iAahD/Vjqwj8kY
qhcb0hS4p6hLYE+qaCs+eyeovBfwDgYVqokv9fAnlh4AKiPsRHx/2JdAu8ILpQki
GlcEaKN1Ftd76C0GnHzvL8I1xKbEqp07JFqbdhA=
-----END CERTIFICATE-----
