Certificate:
    Data:
        Version: 3 (0x2)
        Serial Number: 268435673 (0x100000d9)
    Signature Algorithm: sha256WithRSAEncryption
        Issuer: C=DE, ST=Hessen, O=privacyidea, CN=CA001
        Validity
            Not Before: Jan 22 13:05:36 2018 GMT
            Not After : Jan 22 13:05:36 2019 GMT
        Subject: CN=Steve Test/emailAddress=steve@openssl.org
        Subject Public Key Info:
            Public Key Algorithm: rsaEncryption
                Public-Key: (2048 bit)
                Modulus:
                    00:d2:81:89:20:51:48:0f:73:f4:11:32:24:d5:1f:
                    1c:fd:5c:f5:b6:e6:c5:f0:52:81:dc:d2:af:66:4a:
                    7c:93:31:61:5c:af:d1:6d:06:70:03:60:7c:72:0c:
                    88:dd:49:cd:9e:02:6c:d2:5a:d7:53:0f:f3:da:be:
                    69:64:b5:0f:0c:00:e3:b3:50:47:a3:b3:9b:ba:13:
                    50:d6:58:5a:4b:ab:39:e0:11:ca:0a:27:67:03:78:
                    22:66:6d:92:1e:1b:5c:49:ae:e6:6b:d1:8e:3b:9d:
                    06:d3:c6:ac:4d:53:43:10:ab:e8:96:c1:87:82:97:
                    99:8f:20:d3:99:12:37:31:84:e1:8a:ff:29:03:5f:
                    22:90:3e:7f:9b:e0:20:c1:ad:dc:ae:4c:39:1a:31:
                    96:17:02:8c:b2:d9:b4:0d:20:12:9b:7d:86:54:fd:
                    33:fd:c1:2a:62:46:f8:60:96:cf:6e:01:6f:22:df:
                    13:47:e7:97:ec:05:72:23:a3:62:f8:fa:ef:ac:9c:
                    72:f0:37:cb:2f:37:cf:90:a8:27:51:86:c6:d7:78:
                    08:8f:7e:25:a2:15:70:a2:fb:1c:b6:15:5e:a0:97:
                    8b:81:4c:09:28:8a:27:3b:94:bc:71:db:5b:71:37:
                    9a:2b:16:e0:6f:b5:c9:f5:4b:4f:20:ba:65:cf:af:
                    ad:ad
                Exponent: 65537 (0x10001)
        X509v3 extensions:
            X509v3 Key Usage: 
                Digital Signature, Key Encipherment
            X509v3 Basic Constraints: 
                CA:FALSE
            Netscape Cert Type: 
                SSL Server
            Netscape Comment: 
                OpenSSL Generated Server Certificate
            X509v3 Subject Key Identifier: 
                E5:25:6D:3E:AF:0D:DD:3F:4C:F2:45:19:39:D5:14:DB:7E:9C:C0:AD
            X509v3 Authority Key Identifier: 
                keyid:F4:A7:C0:CC:91:46:AF:64:F3:91:F2:27:F8:C8:B2:6F:8A:87:32:73
                DirName:/C=DE/ST=Hessen/O=privacyidea/CN=CA001
                serial:FB:C8:EB:AC:83:CD:12:07

            X509v3 Extended Key Usage: 
                TLS Web Server Authentication
    Signature Algorithm: sha256WithRSAEncryption
         54:2a:ce:78:33:51:81:de:e3:e7:34:02:04:df:c0:37:60:97:
         c6:84:88:a2:de:af:66:6b:81:80:fd:75:4e:dd:9b:ea:22:a4:
         8f:59:00:4c:7f:a8:f5:e2:08:6a:b5:94:af:bb:0a:0e:d8:ba:
         c2:c1:5a:6a:51:ce:98:3b:48:38:b6:28:dd:51:75:11:9d:1e:
         cd:b2:8b:1e:36:7f:b9:e4:14:f8:a9:2a:62:78:cc:7f:b5:80:
         25:0d:d7:f7:8f:33:39:75:bc:a3:a2:76:4a:61:28:37:ac:70:
         a7:fb:36:8c:de:4b:ae:21:58:33:d7:9f:e1:69:dc:ee:49:91:
         57:81:0a:e5:d6:1f:a6:57:52:6f:7f:d6:7d:5e:e5:17:08:18:
         77:3a:4b:67:40:4f:72:e6:97:9c:63:a7:20:bd:ac:a3:fb:f9:
         d8:f0:7e:e6:6a:91:6b:ea:84:bc:78:62:02:c6:9b:cd:87:5b:
         1f:3c:26:41:89:cb:9d:03:46:79:9c:8b:fc:3c:a6:4d:73:61:
         fd:c2:a8:ed:61:ac:95:a3:9a:23:bd:03:e5:ea:fd:a1:1d:2a:
         62:1a:bb:d7:03:43:9f:77:d8:c9:e6:71:b9:e6:44:af:38:45:
         99:5e:bd:8c:71:e4:4e:22:17:df:5e:73:1d:3d:21:d2:c1:cd:
         e0:d4:f4:0f
-----BEGIN CERTIFICATE-----
MIIECTCCAvGgAwIBAgIEEAAA2TANBgkqhkiG9w0BAQsFADBEMQswCQYDVQQGEwJE
RTEPMA0GA1UECAwGSGVzc2VuMRQwEgYDVQQKDAtwcml2YWN5aWRlYTEOMAwGA1UE
AwwFQ0EwMDEwHhcNMTgwMTIyMTMwNTM2WhcNMTkwMTIyMTMwNTM2WjA3MRMwEQYD
VQQDDApTdGV2ZSBUZXN0MSAwHgYJKoZIhvcNAQkBFhFzdGV2ZUBvcGVuc3NsLm9y
ZzCCASIwDQYJKoZIhvcNAQEBBQADggEPADCCAQoCggEBANKBiSBRSA9z9BEyJNUf
HP1c9bbmxfBSgdzSr2ZKfJMxYVyv0W0GcANgfHIMiN1JzZ4CbNJa11MP89q+aWS1
DwwA47NQR6Ozm7oTUNZYWkurOeARygonZwN4ImZtkh4bXEmu5mvRjjudBtPGrE1T
QxCr6JbBh4KXmY8g05kSNzGE4Yr/KQNfIpA+f5vgIMGt3K5MORoxlhcCjLLZtA0g
Ept9hlT9M/3BKmJG+GCWz24BbyLfE0fnl+wFciOjYvj676yccvA3yy83z5CoJ1GG
xtd4CI9+JaIVcKL7HLYVXqCXi4FMCSiKJzuUvHHbW3E3misW4G+1yfVLTyC6Zc+v
ra0CAwEAAaOCAQ4wggEKMAsGA1UdDwQEAwIFoDAJBgNVHRMEAjAAMBEGCWCGSAGG
+EIBAQQEAwIGQDAzBglghkgBhvhCAQ0EJhYkT3BlblNTTCBHZW5lcmF0ZWQgU2Vy
dmVyIENlcnRpZmljYXRlMB0GA1UdDgQWBBTlJW0+rw3dP0zyRRk51RTbfpzArTB0
BgNVHSMEbTBrgBT0p8DMkUavZPOR8if4yLJviocyc6FIpEYwRDELMAkGA1UEBhMC
REUxDzANBgNVBAgMBkhlc3NlbjEUMBIGA1UECgwLcHJpdmFjeWlkZWExDjAMBgNV
BAMMBUNBMDAxggkA+8jrrIPNEgcwEwYDVR0lBAwwCgYIKwYBBQUHAwEwDQYJKoZI
hvcNAQELBQADggEBAFQqzngzUYHe4+c0AgTfwDdgl8aEiKLer2ZrgYD9dU7dm+oi
pI9ZAEx/qPXiCGq1lK+7Cg7YusLBWmpRzpg7SDi2KN1RdRGdHs2yix42f7nkFPip
KmJ4zH+1gCUN1/ePMzl1vKOidkphKDescKf7NozeS64hWDPXn+Fp3O5JkVeBCuXW
H6ZXUm9/1n1e5RcIGHc6S2dAT3Lml5xjpyC9rKP7+djwfuZqkWvqhLx4YgLGm82H
Wx88JkGJy50DRnmci/w8pk1zYf3CqO1hrJWjmiO9A+Xq/aEdKmIau9cDQ5932Mnm
cbnmRK84RZlevYxx5E4iF99ecx09IdLBzeDU9A8=
-----END CERTIFICATE-----
