Certificate:
    Data:
        Version: 3 (0x2)
        Serial Number: 268435674 (0x100000da)
    Signature Algorithm: sha256WithRSAEncryption
        Issuer: C=DE, ST=Hessen, O=privacyidea, CN=CA001
        Validity
            Not Before: Jan 22 13:05:37 2018 GMT
            Not After : Feb 11 13:05:37 2020 GMT
        Subject: CN=Steve Test/emailAddress=steve@openssl.org
        Subject Public Key Info:
            Public Key Algorithm: rsaEncryption
                Public-Key: (2048 bit)
                Modulus:
                    00:d2:81:89:20:51:48:0f:73:f4:11:32:24:d5:1f:
                    1c:fd:5c:f5:b6:e6:c5:f0:52:81:dc:d2:af:66:4a:
                    7c:93:31:61:5c:af:d1:6d:06:70:03:60:7c:72:0c:
                    88:dd:49:cd:9e:02:6c:d2:5a:d7:53:0f:f3:da:be:
                    69:64:b5:0f:0c:00:e3:b3:50:47:a3:b3:9b:ba:13:
                    50:d6:58:5a:4b:ab:39:e0:11:ca:0a:27:67:03:78:
                    22:66:6d:92:1e:1b:5c:49:ae:e6:6b:d1:8e:3b:9d:
                    06:d3:c6:ac:4d:53:43:10:ab:e8:96:c1:87:82:97:
                    99:8f:20:d3:99:12:37:31:84:e1:8a:ff:29:03:5f:
                    22:90:3e:7f:9b:e0:20:c1:ad:dc:ae:4c:39:1a:31:
                    96:17:02:8c:b2:d9:b4:0d:20:12:9b:7d:86:54:fd:
                    33:fd:c1:2a:62:46:f8:60:96:cf:6e:01:6f:22:df:
                    13:47:e7:97:ec:05:72:23:a3:62:f8:fa:ef:ac:9c:
                    72:f0:37:cb:2f:37:cf:90:a8:27:51:86:c6:d7:78:
                    08:8f:7e:25:a2:15:70:a2:fb:1c:b6:15:5e:a0:97:
                    8b:81:4c:09:28:8a:27:3b:94:bc:71:db:5b:71:37:
                    9a:2b:16:e0:6f:b5:c9:f5:4b:4f:20:ba:65:cf:af:
                    ad:ad
                Exponent: 65537 (0x10001)
        X509v3 extensions:
            X509v3 Key Usage: 
                Digital Signature, Key Encipherment
            X509v3 Basic Constraints: 
                CA:FALSE
            Netscape Cert Type: 
                SSL Server
            Netscape Comment: 
                OpenSSL Generated Server Certificate
            X509v3 Subject Key Identifier: 
                E5:25:6D:3E:AF:0D:DD:3F:4C:F2:45:19:39:D5:14:DB:7E:9C:C0:AD
            X509v3 Authority Key Identifier: 
                keyid:F4:A7:C0:CC:91:46:AF:64:F3:91:F2:27:F8:C8:B2:6F:8A:87:32:73
                DirName:/C=DE/ST=Hessen/O=privacyidea/CN=CA001
                serial:FB:C8:EB:AC:83:CD:12:07

            X509v3 Extended Key Usage: 
                TLS Web Server Authentication
    Signature Algorithm: sha256WithRSAEncryption
         91:36:07:1b:9f:6c:80:22:77:ce:94:5d:f8:8a:b4:f1:91:6b:
         50:eb:06:b5:2a:d1:dd:f3:80:79:66:21:98:4e:23:9b:79:62:
         b9:a9:1d:a6:42:40:cc:db:17:ed:22:a9:9b:02:cf:5f:7b:9b:
         db:cf:d3:e7:1f:bc:18:1e:dd:83:dd:b6:cc:f4:e2:60:01:3c:
         72:b4:be:ee:8d:c1:30:3a:8d:13:3f:8e:ee:7e:78:66:c6:41:
         c1:03:3d:10:cd:d0:71:fb:f3:09:9d:40:1e:d7:1a:7a:02:31:
         0b:0b:1a:80:55:b5:b7:ce:1b:b0:46:d8:fa:08:82:00:74:ef:
         91:17:59:18:68:67:bc:03:15:32:92:7e:13:1f:a6:e5:d3:c0:
         05:06:a4:79:2d:02:a1:4a:11:45:62:62:a1:39:a1:e9:be:59:
         be:a9:d2:e7:ef:35:dc:e0:04:20:0e:70:36:52:78:eb:7f:eb:
         0d:3c:a6:92:39:fe:db:08:26:f2:6f:ae:9b:6b:f0:1c:7c:41:
         24:41:c0:51:a7:7a:40:40:47:1c:fe:b5:f3:8f:7a:28:24:57:
         9f:84:35:2a:35:67:af:c6:fd:43:31:df:1d:8d:cf:5c:0f:fb:
         79:49:5b:a7:8c:e3:d1:01:b9:4a:63:02:87:11:15:34:bd:d9:
         ff:e0:98:02
-----BEGIN CERTIFICATE-----
MIIECTCCAvGgAwIBAgIEEAAA2jANBgkqhkiG9w0BAQsFADBEMQswCQYDVQQGEwJE
RTEPMA0GA1UECAwGSGVzc2VuMRQwEgYDVQQKDAtwcml2YWN5aWRlYTEOMAwGA1UE
AwwFQ0EwMDEwHhcNMTgwMTIyMTMwNTM3WhcNMjAwMjExMTMwNTM3WjA3MRMwEQYD
VQQDDApTdGV2ZSBUZXN0MSAwHgYJKoZIhvcNAQkBFhFzdGV2ZUBvcGVuc3NsLm9y
ZzCCASIwDQYJKoZIhvcNAQEBBQADggEPADCCAQoCggEBANKBiSBRSA9z9BEyJNUf
HP1c9bbmxfBSgdzSr2ZKfJMxYVyv0W0GcANgfHIMiN1JzZ4CbNJa11MP89q+aWS1
DwwA47NQR6Ozm7oTUNZYWkurOeARygonZwN4ImZtkh4bXEmu5mvRjjudBtPGrE1T
QxCr6JbBh4KXmY8g05kSNzGE4Yr/KQNfIpA+f5vgIMGt3K5MORoxlhcCjLLZtA0g
Ept9hlT9M/3BKmJG+GCWz24BbyLfE0fnl+wFciOjYvj676yccvA3yy83z5CoJ1GG
xtd4CI9+JaIVcKL7HLYVXqCXi4FMCSiKJzuUvHHbW3E3misW4G+1yfVLTyC6Zc+v
ra0CAwEAAaOCAQ4wggEKMAsGA1UdDwQEAwIFoDAJBgNVHRMEAjAAMBEGCWCGSAGG
+EIBAQQEAwIGQDAzBglghkgBhvhCAQ0EJhYkT3BlblNTTCBHZW5lcmF0ZWQgU2Vy
dmVyIENlcnRpZmljYXRlMB0GA1UdDgQWBBTlJW0+rw3dP0zyRRk51RTbfpzArTB0
BgNVHSMEbTBrgBT0p8DMkUavZPOR8if4yLJviocyc6FIpEYwRDELMAkGA1UEBhMC
REUxDzANBgNVBAgMBkhlc3NlbjEUMBIGA1UECgwLcHJpdmFjeWlkZWExDjAMBgNV
BAMMBUNBMDAxggkA+8jrrIPNEgcwEwYDVR0lBAwwCgYIKwYBBQUHAwEwDQYJKoZI
hvcNAQELBQADggEBAJE2BxufbIAid86UXfiKtPGRa1DrBrUq0d3zgHlmIZhOI5t5
YrmpHaZCQMzbF+0iqZsCz197m9vP0+cfvBge3YPdtsz04mABPHK0vu6NwTA6jRM/
ju5+eGbGQcEDPRDN0HH78wmdQB7XGnoCMQsLGoBVtbfOG7BG2PoIggB075EXWRho
Z7wDFTKSfhMfpuXTwAUGpHktAqFKEUViYqE5oem+Wb6p0ufvNdzgBCAOcDZSeOt/
6w08ppI5/tsIJvJvrptr8Bx8QSRBwFGnekBARxz+tfOPeigkV5+ENSo1Z6/G/UMx
3x2Nz1wP+3lJW6eM49EBuUpjAocRFTS92f/gmAI=
-----END CERTIFICATE-----
