Certificate:
    Data:
        Version: 3 (0x2)
        Serial Number: 268435666 (0x100000d2)
    Signature Algorithm: sha256WithRSAEncryption
        Issuer: C=DE, ST=Hessen, O=privacyidea, CN=CA001
        Validity
            Not Before: Mar 27 06:13:38 2018 GMT
            Not After : Mar 27 06:13:38 2019 GMT
        Subject: C=DE, ST=Hessen, O=privacyidea, CN=usercert
        Subject Public Key Info:
            Public Key Algorithm: rsaEncryption
                Public-Key: (2048 bit)
                Modulus:
                    00:dc:2f:d1:5f:29:97:d4:7c:c3:53:c8:30:bd:4b:
                    67:70:2c:24:6b:b8:5e:eb:21:7a:48:12:56:7c:81:
                    5c:48:75:b6:68:eb:f6:f2:98:4e:50:51:d1:7f:6c:
                    73:f3:0a:a7:ae:be:48:5e:e5:d6:e1:d9:2a:7c:32:
                    6e:4e:fd:08:f6:5a:54:49:23:73:c3:b9:07:18:d1:
                    ef:b3:ac:f8:8a:dc:94:96:a4:90:3a:8e:74:df:e6:
                    0d:37:1b:bd:5b:b7:25:1a:56:39:da:6f:91:aa:5e:
                    1c:74:f3:f9:7c:14:01:83:12:65:76:c7:bb:fe:36:
                    5b:95:e9:72:65:83:ed:3e:98:30:71:fa:87:dd:a3:
                    36:5a:30:03:2e:26:e0:61:d1:bf:02:3f:b6:06:1f:
                    4a:89:28:1c:5c:a2:ff:4e:be:94:e6:8c:e0:da:82:
                    f1:9d:29:32:48:30:73:b4:04:f6:42:1e:be:f7:e2:
                    32:32:27:3c:9d:89:2f:70:3e:85:9a:6f:5c:c5:09:
                    c0:8c:32:2f:72:22:c9:d2:95:1f:b6:ac:72:60:72:
                    b7:82:4d:6b:ce:5b:e3:00:d0:d2:2f:58:c6:e0:10:
                    e5:51:ca:4d:3b:2e:e6:7e:ab:84:d6:56:f1:93:35:
                    a0:93:64:26:81:75:2f:91:b5:16:06:38:0b:db:cc:
                    2d:07
                Exponent: 65537 (0x10001)
        X509v3 extensions:
            X509v3 Key Usage: 
                Digital Signature, Key Encipherment
            X509v3 Basic Constraints: 
                CA:FALSE
            Netscape Cert Type: 
                SSL Server
            Netscape Comment: 
                OpenSSL Generated Server Certificate
            X509v3 Subject Key Identifier: 
                FC:14:D1:F0:4B:8D:00:90:F2:F5:B8:71:9E:4E:97:C3:92:54:AD:0B
            X509v3 Authority Key Identifier: 
                keyid:F4:A7:C0:CC:91:46:AF:64:F3:91:F2:27:F8:C8:B2:6F:8A:87:32:73
                DirName:/C=DE/ST=Hessen/O=privacyidea/CN=CA001
                serial:FB:C8:EB:AC:83:CD:12:07

            X509v3 Extended Key Usage: 
                TLS Web Server Authentication
    Signature Algorithm: sha256WithRSAEncryption
         4d:66:19:c6:ae:e8:6b:85:db:61:b5:ba:74:cb:76:e3:9e:a8:
         ef:e1:d9:90:f0:41:5d:12:a7:fa:48:9c:41:c9:b1:82:1e:71:
         aa:6b:40:ef:43:bf:1c:3e:dd:fa:21:89:0f:2a:bc:ac:d2:4f:
         d3:25:4c:66:87:fe:9c:99:bf:b2:96:c3:90:4b:e5:03:fd:8e:
         d2:93:82:44:1e:7c:81:d2:d3:cc:c6:ab:a0:84:80:96:3c:73:
         1b:38:d0:7d:e0:94:eb:32:4b:25:c9:52:95:0b:94:7f:ad:48:
         a0:db:f1:9f:59:79:1d:60:ec:a7:2b:6a:1a:31:7b:78:2b:d1:
         f2:d8:b5:31:68:b1:67:cb:90:a4:c9:40:4d:be:64:19:22:e3:
         78:84:50:8a:64:b9:76:76:6d:23:40:69:04:ce:de:48:fd:95:
         da:33:0b:e4:d8:9b:7b:0e:f2:57:a3:74:c1:a2:68:0c:f3:d4:
         91:8e:de:9f:b2:11:b4:3d:4b:80:83:4f:2f:00:0f:a1:27:f3:
         3f:85:10:b2:28:59:b0:82:8f:1d:71:01:40:8b:61:48:bc:16:
         19:21:af:11:01:6c:19:a9:c8:82:d6:41:e0:b5:62:98:03:43:
         33:c7:95:bc:45:3c:59:6a:54:1e:95:d1:ee:e5:66:11:11:13:
         d6:90:a7:a7
-----BEGIN CERTIFICATE-----
MIIEGTCCAwGgAwIBAgIEEAAA0jANBgkqhkiG9w0BAQsFADBEMQswCQYDVQQGEwJE
RTEPMA0GA1UECAwGSGVzc2VuMRQwEgYDVQQKDAtwcml2YWN5aWRlYTEOMAwGA1UE
AwwFQ0EwMDEwHhcNMTgwMzI3MDYxMzM4WhcNMTkwMzI3MDYxMzM4WjBHMQswCQYD
VQQGEwJERTEPMA0GA1UECAwGSGVzc2VuMRQwEgYDVQQKDAtwcml2YWN5aWRlYTER
MA8GA1UEAwwIdXNlcmNlcnQwggEiMA0GCSqGSIb3DQEBAQUAA4IBDwAwggEKAoIB
AQDcL9FfKZfUfMNTyDC9S2dwLCRruF7rIXpIElZ8gVxIdbZo6/bymE5QUdF/bHPz
Cqeuvkhe5dbh2Sp8Mm5O/Qj2WlRJI3PDuQcY0e+zrPiK3JSWpJA6jnTf5g03G71b
tyUaVjnab5GqXhx08/l8FAGDEmV2x7v+NluV6XJlg+0+mDBx+ofdozZaMAMuJuBh
0b8CP7YGH0qJKBxcov9OvpTmjODagvGdKTJIMHO0BPZCHr734jIyJzydiS9wPoWa
b1zFCcCMMi9yIsnSlR+2rHJgcreCTWvOW+MA0NIvWMbgEOVRyk07LuZ+q4TWVvGT
NaCTZCaBdS+RtRYGOAvbzC0HAgMBAAGjggEOMIIBCjALBgNVHQ8EBAMCBaAwCQYD
VR0TBAIwADARBglghkgBhvhCAQEEBAMCBkAwMwYJYIZIAYb4QgENBCYWJE9wZW5T
U0wgR2VuZXJhdGVkIFNlcnZlciBDZXJ0aWZpY2F0ZTAdBgNVHQ4EFgQU/BTR8EuN
AJDy9bhxnk6Xw5JUrQswdAYDVR0jBG0wa4AU9KfAzJFGr2TzkfIn+Miyb4qHMnOh
SKRGMEQxCzAJBgNVBAYTAkRFMQ8wDQYDVQQIDAZIZXNzZW4xFDASBgNVBAoMC3By
aXZhY3lpZGVhMQ4wDAYDVQQDDAVDQTAwMYIJAPvI66yDzRIHMBMGA1UdJQQMMAoG
CCsGAQUFBwMBMA0GCSqGSIb3DQEBCwUAA4IBAQBNZhnGruhrhdthtbp0y3bjnqjv
4dmQ8EFdEqf6SJxBybGCHnGqa0DvQ78cPt36IYkPKrys0k/TJUxmh/6cmb+ylsOQ
S+UD/Y7Sk4JEHnyB0tPMxqughICWPHMbONB94JTrMkslyVKVC5R/rUig2/GfWXkd
YOynK2oaMXt4K9Hy2LUxaLFny5CkyUBNvmQZIuN4hFCKZLl2dm0jQGkEzt5I/ZXa
Mwvk2Jt7DvJXo3TBomgM89SRjt6fshG0PUuAg08vAA+hJ/M/hRCyKFmwgo8dcQFA
i2FIvBYZIa8RAWwZqciC1kHgtWKYA0Mzx5W8RTxZalQeldHu5WYRERPWkKen
-----END CERTIFICATE-----
