Certificate:
    Data:
        Version: 3 (0x2)
        Serial Number: 268435669 (0x100000d5)
    Signature Algorithm: sha256WithRSAEncryption
        Issuer: C=DE, ST=Hessen, O=privacyidea, CN=CA001
        Validity
            Not Before: Mar 27 06:17:33 2018 GMT
            Not After : Mar 27 06:17:33 2019 GMT
        Subject: C=DE, ST=Hessen, O=privacyidea, CN=requester.localdomain
        Subject Public Key Info:
            Public Key Algorithm: rsaEncryption
                Public-Key: (2048 bit)
                Modulus:
                    00:cd:be:14:4f:fa:ce:01:3f:42:22:1b:1d:9c:af:
                    dd:92:d2:7f:db:6c:b7:3e:39:43:43:6b:13:03:f1:
                    05:f4:07:74:bc:76:69:28:0b:af:19:8e:d7:fc:e3:
                    cd:c6:58:f2:ca:7f:08:6d:53:fc:07:02:44:24:c6:
                    b4:34:4c:8c:04:fe:33:0e:40:e2:20:ba:02:73:5a:
                    f7:f5:4f:63:6e:cc:c6:b6:df:54:1d:37:39:7d:51:
                    36:26:5f:bd:dc:3f:a8:8b:6b:a2:ae:b6:9d:d6:21:
                    e7:df:41:b8:7a:28:2a:68:48:ca:a8:2d:ed:e1:e9:
                    46:5e:5a:72:6d:b4:84:38:87:91:fd:94:11:0b:28:
                    84:c6:c2:2f:2a:fb:01:f9:36:7a:09:75:d1:33:88:
                    3c:73:41:5b:c8:bf:94:89:70:a1:f0:c0:b9:2e:50:
                    53:1e:b1:17:64:69:f4:2d:81:e0:a9:0d:0e:32:e9:
                    ba:55:8a:85:f1:1b:6f:49:79:b4:7f:88:c3:0d:3e:
                    54:88:9b:3d:1f:38:8c:04:f3:ee:6a:63:2b:f5:c6:
                    db:b4:83:aa:c4:78:41:3a:7d:4b:e1:c8:3e:71:ca:
                    1b:61:59:ea:c6:c4:ca:32:5e:c9:e9:bf:12:29:e6:
                    c6:c3:63:fe:a0:55:da:7a:f1:60:98:4d:26:ed:fa:
                    70:2d
                Exponent: 65537 (0x10001)
        X509v3 extensions:
            X509v3 Key Usage: 
                Digital Signature, Key Encipherment
            X509v3 Basic Constraints: 
                CA:FALSE
            Netscape Cert Type: 
                SSL Server
            Netscape Comment: 
                OpenSSL Generated Server Certificate
            X509v3 Subject Key Identifier: 
                53:3F:ED:5D:09:07:B3:65:7B:AB:45:C9:24:5B:09:77:80:0A:96:ED
            X509v3 Authority Key Identifier: 
                keyid:F4:A7:C0:CC:91:46:AF:64:F3:91:F2:27:F8:C8:B2:6F:8A:87:32:73
                DirName:/C=DE/ST=Hessen/O=privacyidea/CN=CA001
                serial:FB:C8:EB:AC:83:CD:12:07

            X509v3 Extended Key Usage: 
                TLS Web Server Authentication
    Signature Algorithm: sha256WithRSAEncryption
         b1:8a:3f:57:90:21:19:7a:c9:91:e7:9e:ae:67:97:f6:bf:65:
         50:85:df:4e:62:d3:b0:84:55:ab:a1:ed:07:72:43:7a:39:f7:
         d8:01:22:14:14:3a:43:12:4f:e2:0a:b6:40:ed:bf:a3:d5:39:
         d0:f2:b2:5e:d4:e3:3b:b4:cd:b7:dc:87:89:40:cb:6a:14:15:
         fa:ce:2c:1e:bf:09:5d:a1:93:62:c0:13:39:37:70:d2:c3:d1:
         cd:bc:49:e8:43:36:a5:d7:6d:b4:8d:79:a2:2b:33:15:11:61:
         c1:56:9a:1a:06:90:27:42:4d:16:fd:d3:24:62:6f:b6:c9:15:
         cd:75:01:d0:96:af:d5:f0:0b:c6:1c:42:57:81:21:a4:db:55:
         31:8b:87:4d:8b:25:5c:e0:ef:4e:0b:02:db:20:4b:93:8c:da:
         bb:ba:28:47:3d:ac:4d:cc:22:8c:1c:07:30:f5:62:6b:3a:ff:
         60:6f:e3:82:02:39:96:b6:e4:46:4e:33:b0:b0:9a:d3:ac:44:
         93:ee:09:5f:e9:ec:c5:37:b1:e1:e7:ce:d5:e6:29:ed:b7:a4:
         2e:32:60:1c:12:1b:b8:25:c6:3d:e5:f2:f8:5f:77:44:c9:05:
         f1:88:6e:41:a8:d5:95:a2:b1:da:ba:f5:f4:92:d6:34:e4:93:
         5e:9b:6f:9b
-----BEGIN CERTIFICATE-----
MIIEJjCCAw6gAwIBAgIEEAAA1TANBgkqhkiG9w0BAQsFADBEMQswCQYDVQQGEwJE
RTEPMA0GA1UECAwGSGVzc2VuMRQwEgYDVQQKDAtwcml2YWN5aWRlYTEOMAwGA1UE
AwwFQ0EwMDEwHhcNMTgwMzI3MDYxNzMzWhcNMTkwMzI3MDYxNzMzWjBUMQswCQYD
VQQGEwJERTEPMA0GA1UECAwGSGVzc2VuMRQwEgYDVQQKDAtwcml2YWN5aWRlYTEe
MBwGA1UEAwwVcmVxdWVzdGVyLmxvY2FsZG9tYWluMIIBIjANBgkqhkiG9w0BAQEF
AAOCAQ8AMIIBCgKCAQEAzb4UT/rOAT9CIhsdnK/dktJ/22y3PjlDQ2sTA/EF9Ad0
vHZpKAuvGY7X/OPNxljyyn8IbVP8BwJEJMa0NEyMBP4zDkDiILoCc1r39U9jbszG
tt9UHTc5fVE2Jl+93D+oi2uirrad1iHn30G4eigqaEjKqC3t4elGXlpybbSEOIeR
/ZQRCyiExsIvKvsB+TZ6CXXRM4g8c0FbyL+UiXCh8MC5LlBTHrEXZGn0LYHgqQ0O
Mum6VYqF8RtvSXm0f4jDDT5UiJs9HziMBPPuamMr9cbbtIOqxHhBOn1L4cg+ccob
YVnqxsTKMl7J6b8SKebGw2P+oFXaevFgmE0m7fpwLQIDAQABo4IBDjCCAQowCwYD
VR0PBAQDAgWgMAkGA1UdEwQCMAAwEQYJYIZIAYb4QgEBBAQDAgZAMDMGCWCGSAGG
+EIBDQQmFiRPcGVuU1NMIEdlbmVyYXRlZCBTZXJ2ZXIgQ2VydGlmaWNhdGUwHQYD
VR0OBBYEFFM/7V0JB7Nle6tFySRbCXeACpbtMHQGA1UdIwRtMGuAFPSnwMyRRq9k
85HyJ/jIsm+KhzJzoUikRjBEMQswCQYDVQQGEwJERTEPMA0GA1UECAwGSGVzc2Vu
MRQwEgYDVQQKDAtwcml2YWN5aWRlYTEOMAwGA1UEAwwFQ0EwMDGCCQD7yOusg80S
BzATBgNVHSUEDDAKBggrBgEFBQcDATANBgkqhkiG9w0BAQsFAAOCAQEAsYo/V5Ah
GXrJkeeermeX9r9lUIXfTmLTsIRVq6HtB3JDejn32AEiFBQ6QxJP4gq2QO2/o9U5
0PKyXtTjO7TNt9yHiUDLahQV+s4sHr8JXaGTYsATOTdw0sPRzbxJ6EM2pddttI15
oiszFRFhwVaaGgaQJ0JNFv3TJGJvtskVzXUB0Jav1fALxhxCV4EhpNtVMYuHTYsl
XODvTgsC2yBLk4zau7ooRz2sTcwijBwHMPViazr/YG/jggI5lrbkRk4zsLCa06xE
k+4JX+nsxTex4efO1eYp7bekLjJgHBIbuCXGPeXy+F93RMkF8YhuQajVlaKx2rr1
9JLWNOSTXptvmw==
-----END CERTIFICATE-----
