Certificate:
    Data:
        Version: 3 (0x2)
        Serial Number: 268435671 (0x100000d7)
    Signature Algorithm: sha256WithRSAEncryption
        Issuer: C=DE, ST=Hessen, O=privacyidea, CN=CA001
        Validity
            Not Before: Mar  2 23:08:13 2018 GMT
            Not After : Mar  2 23:08:13 2019 GMT
        Subject: CN=selfservice,CN=user,O=realm1/emailAddress=meine
        Subject Public Key Info:
            Public Key Algorithm: rsaEncryption
                Public-Key: (2048 bit)
                Modulus:
                    00:cf:3c:d4:33:0e:12:c4:e6:da:cd:b6:56:a1:1c:
                    26:bb:26:1c:8a:4a:73:a8:58:8a:b6:1e:b3:8b:99:
                    d2:1d:07:c2:92:89:79:c0:69:d8:c8:df:28:61:98:
                    1e:b3:fe:ae:2b:bd:78:a9:f7:6e:47:dc:a3:a0:16:
                    8c:85:02:c1:4e:92:fd:72:6e:f0:c8:03:29:9b:b8:
                    00:6e:c0:83:95:c8:34:20:36:9c:b3:e5:e4:e6:76:
                    73:a3:1a:ad:40:96:e0:53:54:00:ec:76:79:9a:c6:
                    0d:7e:b6:bd:29:ec:83:f3:cb:89:a4:cb:6c:00:ba:
                    0c:c5:78:0f:ff:69:b8:94:f4:04:70:43:3f:d8:9e:
                    d7:a7:fb:5d:ce:75:8e:da:e7:c4:07:b1:9d:de:6f:
                    88:4b:b6:4d:9a:cf:f9:bc:fa:9f:cd:32:6d:f6:3a:
                    0b:0d:23:42:78:ec:97:42:bf:0e:4d:60:56:e1:d3:
                    02:f2:19:cb:84:57:90:e5:70:a1:a2:83:35:86:e2:
                    da:86:9f:f9:8a:c4:79:b3:52:28:da:cb:bb:34:ca:
                    d3:da:91:4a:cf:8d:76:a2:b2:6b:9b:f9:96:fd:09:
                    2a:da:11:23:4d:f0:cb:d6:b2:b1:0e:12:6c:9a:19:
                    65:98:87:ca:e4:ee:24:ce:44:ac:90:8f:9d:1b:c5:
                    2a:9d
                Exponent: 65537 (0x10001)
        X509v3 extensions:
            X509v3 Key Usage: 
                Digital Signature, Key Encipherment
            X509v3 Basic Constraints: 
                CA:FALSE
            Netscape Cert Type: 
                SSL Server
            Netscape Comment: 
                OpenSSL Generated Server Certificate
            X509v3 Subject Key Identifier: 
                4D:07:90:AD:FF:1D:0D:E7:1A:DD:D6:2E:FA:BA:34:CB:AA:1F:24:C6
            X509v3 Authority Key Identifier: 
                keyid:F4:A7:C0:CC:91:46:AF:64:F3:91:F2:27:F8:C8:B2:6F:8A:87:32:73
                DirName:/C=DE/ST=Hessen/O=privacyidea/CN=CA001
                serial:FB:C8:EB:AC:83:CD:12:07

            X509v3 Extended Key Usage: 
                TLS Web Server Authentication
    Signature Algorithm: sha256WithRSAEncryption
         a0:58:d4:ad:03:6e:26:d6:f5:c9:87:38:28:ef:4d:9d:be:0c:
         86:f2:30:1b:5c:34:02:90:34:0d:cc:27:1d:f7:02:10:54:06:
         14:c7:de:55:8a:57:a0:23:81:2d:61:a6:db:1a:73:8d:15:ad:
         c2:f9:9e:cc:b1:d5:50:88:f2:67:64:01:0b:21:2c:a1:d3:b8:
         d9:89:1d:8b:96:7d:48:63:4e:a0:73:73:81:9a:6f:98:e0:dd:
         3e:4d:ec:a3:2c:8d:d6:40:bc:3f:de:19:af:46:f2:76:7c:a2:
         d9:df:41:8b:19:c7:d4:04:ac:ac:43:38:c6:23:2f:a5:f5:a8:
         e8:7e:32:f3:a0:8b:a6:29:17:9c:ad:96:a7:7b:bb:f6:ea:bd:
         7d:81:b1:cc:84:4b:e9:41:10:c8:54:f3:d4:d9:fe:ca:80:82:
         18:a2:27:0d:4e:81:97:17:0d:ff:a9:5b:32:ae:99:61:2a:35:
         9a:91:85:0a:65:b5:03:62:69:00:bf:68:65:4d:ea:f9:7e:d3:
         de:d1:8c:85:40:fb:44:63:68:32:6b:7f:e7:8b:bb:17:8b:9a:
         50:ea:84:76:0c:8c:c9:8c:7f:0c:84:55:fb:ae:ea:65:0f:7d:
         60:68:63:89:0e:0d:39:71:b4:dc:27:fc:f1:42:be:2f:0b:4f:
         36:db:35:4f
-----BEGIN CERTIFICATE-----
MIIEDzCCAvegAwIBAgIEEAAA1zANBgkqhkiG9w0BAQsFADBEMQswCQYDVQQGEwJE
RTEPMA0GA1UECAwGSGVzc2VuMRQwEgYDVQQKDAtwcml2YWN5aWRlYTEOMAwGA1UE
AwwFQ0EwMDEwHhcNMTgwMzAyMjMwODEzWhcNMTkwMzAyMjMwODEzWjA9MSUwIwYD
VQQDDBxzZWxmc2VydmljZSxDTj11c2VyLE89cmVhbG0xMRQwEgYJKoZIhvcNAQkB
FgVtZWluZTCCASIwDQYJKoZIhvcNAQEBBQADggEPADCCAQoCggEBAM881DMOEsTm
2s22VqEcJrsmHIpKc6hYirYes4uZ0h0HwpKJecBp2MjfKGGYHrP+riu9eKn3bkfc
o6AWjIUCwU6S/XJu8MgDKZu4AG7Ag5XINCA2nLPl5OZ2c6MarUCW4FNUAOx2eZrG
DX62vSnsg/PLiaTLbAC6DMV4D/9puJT0BHBDP9ie16f7Xc51jtrnxAexnd5viEu2
TZrP+bz6n80ybfY6Cw0jQnjsl0K/Dk1gVuHTAvIZy4RXkOVwoaKDNYbi2oaf+YrE
ebNSKNrLuzTK09qRSs+NdqKya5v5lv0JKtoRI03wy9aysQ4SbJoZZZiHyuTuJM5E
rJCPnRvFKp0CAwEAAaOCAQ4wggEKMAsGA1UdDwQEAwIFoDAJBgNVHRMEAjAAMBEG
CWCGSAGG+EIBAQQEAwIGQDAzBglghkgBhvhCAQ0EJhYkT3BlblNTTCBHZW5lcmF0
ZWQgU2VydmVyIENlcnRpZmljYXRlMB0GA1UdDgQWBBRNB5Ct/x0N5xrd1i76ujTL
qh8kxjB0BgNVHSMEbTBrgBT0p8DMkUavZPOR8if4yLJviocyc6FIpEYwRDELMAkG
A1UEBhMCREUxDzANBgNVBAgMBkhlc3NlbjEUMBIGA1UECgwLcHJpdmFjeWlkZWEx
DjAMBgNVBAMMBUNBMDAxggkA+8jrrIPNEgcwEwYDVR0lBAwwCgYIKwYBBQUHAwEw
DQYJKoZIhvcNAQELBQADggEBAKBY1K0DbibW9cmHOCjvTZ2+DIbyMBtcNAKQNA3M
Jx33AhBUBhTH3lWKV6AjgS1hptsac40VrcL5nsyx1VCI8mdkAQshLKHTuNmJHYuW
fUhjTqBzc4Gab5jg3T5N7KMsjdZAvD/eGa9G8nZ8otnfQYsZx9QErKxDOMYjL6X1
qOh+MvOgi6YpF5ytlqd7u/bqvX2BscyES+lBEMhU89TZ/sqAghiiJw1OgZcXDf+p
WzKumWEqNZqRhQpltQNiaQC/aGVN6vl+097RjIVA+0RjaDJrf+eLuxeLmlDqhHYM
jMmMfwyEVfuu6mUPfWBoY4kODTlxtNwn/PFCvi8LTzbbNU8=
-----END CERTIFICATE-----
