Certificate:
    Data:
        Version: 3 (0x2)
        Serial Number: 268435665 (0x100000d1)
    Signature Algorithm: sha256WithRSAEncryption
        Issuer: C=DE, ST=Hessen, O=privacyidea, CN=CA001
        Validity
            Not Before: Mar  2 22:55:03 2018 GMT
            Not After : Mar  2 22:55:03 2019 GMT
        Subject: C=DE, ST=Hessen, O=privacyidea, CN=requester.localdomain
        Subject Public Key Info:
            Public Key Algorithm: rsaEncryption
                Public-Key: (2048 bit)
                Modulus:
                    00:cd:be:14:4f:fa:ce:01:3f:42:22:1b:1d:9c:af:
                    dd:92:d2:7f:db:6c:b7:3e:39:43:43:6b:13:03:f1:
                    05:f4:07:74:bc:76:69:28:0b:af:19:8e:d7:fc:e3:
                    cd:c6:58:f2:ca:7f:08:6d:53:fc:07:02:44:24:c6:
                    b4:34:4c:8c:04:fe:33:0e:40:e2:20:ba:02:73:5a:
                    f7:f5:4f:63:6e:cc:c6:b6:df:54:1d:37:39:7d:51:
                    36:26:5f:bd:dc:3f:a8:8b:6b:a2:ae:b6:9d:d6:21:
                    e7:df:41:b8:7a:28:2a:68:48:ca:a8:2d:ed:e1:e9:
                    46:5e:5a:72:6d:b4:84:38:87:91:fd:94:11:0b:28:
                    84:c6:c2:2f:2a:fb:01:f9:36:7a:09:75:d1:33:88:
                    3c:73:41:5b:c8:bf:94:89:70:a1:f0:c0:b9:2e:50:
                    53:1e:b1:17:64:69:f4:2d:81:e0:a9:0d:0e:32:e9:
                    ba:55:8a:85:f1:1b:6f:49:79:b4:7f:88:c3:0d:3e:
                    54:88:9b:3d:1f:38:8c:04:f3:ee:6a:63:2b:f5:c6:
                    db:b4:83:aa:c4:78:41:3a:7d:4b:e1:c8:3e:71:ca:
                    1b:61:59:ea:c6:c4:ca:32:5e:c9:e9:bf:12:29:e6:
                    c6:c3:63:fe:a0:55:da:7a:f1:60:98:4d:26:ed:fa:
                    70:2d
                Exponent: 65537 (0x10001)
        X509v3 extensions:
            X509v3 Key Usage: 
                Digital Signature, Key Encipherment
            X509v3 Basic Constraints: 
                CA:FALSE
            Netscape Cert Type: 
                SSL Server
            Netscape Comment: 
                OpenSSL Generated Server Certificate
            X509v3 Subject Key Identifier: 
                53:3F:ED:5D:09:07:B3:65:7B:AB:45:C9:24:5B:09:77:80:0A:96:ED
            X509v3 Authority Key Identifier: 
                keyid:F4:A7:C0:CC:91:46:AF:64:F3:91:F2:27:F8:C8:B2:6F:8A:87:32:73
                DirName:/C=DE/ST=Hessen/O=privacyidea/CN=CA001
                serial:FB:C8:EB:AC:83:CD:12:07

            X509v3 Extended Key Usage: 
                TLS Web Server Authentication
    Signature Algorithm: sha256WithRSAEncryption
         3d:36:71:f3:26:cf:27:ec:28:99:ad:0b:9c:31:c2:99:94:96:
         af:40:8a:d7:03:a0:b8:f7:27:57:fd:2f:a6:d7:e5:08:41:6a:
         6b:85:8d:98:e1:9b:cf:e1:c8:9e:00:cd:f1:f7:d2:e1:46:26:
         13:bd:53:2c:b7:15:31:5a:dd:70:af:2e:d1:d7:ab:92:ff:cc:
         dc:0c:29:7f:4b:92:75:5f:17:15:e8:3f:62:5d:78:91:48:da:
         eb:19:4e:cf:60:c7:06:c8:f5:20:43:e0:fb:cd:82:73:3d:94:
         98:94:24:88:95:fb:91:17:9e:f2:a9:18:1d:6f:74:c2:73:03:
         8d:a1:3d:92:0b:5f:41:6c:bf:c1:77:fb:8f:85:17:dc:24:5e:
         7e:b2:ee:4c:21:25:5e:6f:b7:54:ad:e7:28:ea:7e:8e:bf:71:
         8d:f6:48:6f:f0:ce:ec:44:4b:04:80:d0:4b:b6:af:09:34:f7:
         59:06:0c:e4:03:60:89:48:ef:1a:52:98:ef:1d:1f:de:de:c1:
         67:54:30:d1:ff:50:58:9e:5d:f0:cf:fe:92:eb:3e:e4:fb:72:
         db:90:f4:9c:26:28:d3:09:3b:29:3b:79:c5:98:10:95:7e:50:
         2d:1b:53:2b:7f:c5:97:e7:6b:e5:b0:61:15:75:52:74:af:89:
         9b:40:8e:d3
-----BEGIN CERTIFICATE-----
MIIEJjCCAw6gAwIBAgIEEAAA0TANBgkqhkiG9w0BAQsFADBEMQswCQYDVQQGEwJE
RTEPMA0GA1UECAwGSGVzc2VuMRQwEgYDVQQKDAtwcml2YWN5aWRlYTEOMAwGA1UE
AwwFQ0EwMDEwHhcNMTgwMzAyMjI1NTAzWhcNMTkwMzAyMjI1NTAzWjBUMQswCQYD
VQQGEwJERTEPMA0GA1UECAwGSGVzc2VuMRQwEgYDVQQKDAtwcml2YWN5aWRlYTEe
MBwGA1UEAwwVcmVxdWVzdGVyLmxvY2FsZG9tYWluMIIBIjANBgkqhkiG9w0BAQEF
AAOCAQ8AMIIBCgKCAQEAzb4UT/rOAT9CIhsdnK/dktJ/22y3PjlDQ2sTA/EF9Ad0
vHZpKAuvGY7X/OPNxljyyn8IbVP8BwJEJMa0NEyMBP4zDkDiILoCc1r39U9jbszG
tt9UHTc5fVE2Jl+93D+oi2uirrad1iHn30G4eigqaEjKqC3t4elGXlpybbSEOIeR
/ZQRCyiExsIvKvsB+TZ6CXXRM4g8c0FbyL+UiXCh8MC5LlBTHrEXZGn0LYHgqQ0O
Mum6VYqF8RtvSXm0f4jDDT5UiJs9HziMBPPuamMr9cbbtIOqxHhBOn1L4cg+ccob
YVnqxsTKMl7J6b8SKebGw2P+oFXaevFgmE0m7fpwLQIDAQABo4IBDjCCAQowCwYD
VR0PBAQDAgWgMAkGA1UdEwQCMAAwEQYJYIZIAYb4QgEBBAQDAgZAMDMGCWCGSAGG
+EIBDQQmFiRPcGVuU1NMIEdlbmVyYXRlZCBTZXJ2ZXIgQ2VydGlmaWNhdGUwHQYD
VR0OBBYEFFM/7V0JB7Nle6tFySRbCXeACpbtMHQGA1UdIwRtMGuAFPSnwMyRRq9k
85HyJ/jIsm+KhzJzoUikRjBEMQswCQYDVQQGEwJERTEPMA0GA1UECAwGSGVzc2Vu
MRQwEgYDVQQKDAtwcml2YWN5aWRlYTEOMAwGA1UEAwwFQ0EwMDGCCQD7yOusg80S
BzATBgNVHSUEDDAKBggrBgEFBQcDATANBgkqhkiG9w0BAQsFAAOCAQEAPTZx8ybP
J+woma0LnDHCmZSWr0CK1wOguPcnV/0vptflCEFqa4WNmOGbz+HIngDN8ffS4UYm
E71TLLcVMVrdcK8u0derkv/M3Awpf0uSdV8XFeg/Yl14kUja6xlOz2DHBsj1IEPg
+82Ccz2UmJQkiJX7kRee8qkYHW90wnMDjaE9kgtfQWy/wXf7j4UX3CRefrLuTCEl
Xm+3VK3nKOp+jr9xjfZIb/DO7ERLBIDQS7avCTT3WQYM5ANgiUjvGlKY7x0f3t7B
Z1Qw0f9QWJ5d8M/+kus+5Pty25D0nCYo0wk7KTt5xZgQlX5QLRtTK3/Fl+dr5bBh
FXVSdK+Jm0CO0w==
-----END CERTIFICATE-----
