Certificate:
    Data:
        Version: 3 (0x2)
        Serial Number: 268435668 (0x100000d4)
    Signature Algorithm: sha256WithRSAEncryption
        Issuer: C=DE, ST=Hessen, O=privacyidea, CN=CA001
        Validity
            Not Before: Mar  2 22:55:04 2018 GMT
            Not After : Mar 21 22:55:04 2020 GMT
        Subject: CN=Steve Test/emailAddress=steve@openssl.org
        Subject Public Key Info:
            Public Key Algorithm: rsaEncryption
                Public-Key: (2048 bit)
                Modulus:
                    00:d2:81:89:20:51:48:0f:73:f4:11:32:24:d5:1f:
                    1c:fd:5c:f5:b6:e6:c5:f0:52:81:dc:d2:af:66:4a:
                    7c:93:31:61:5c:af:d1:6d:06:70:03:60:7c:72:0c:
                    88:dd:49:cd:9e:02:6c:d2:5a:d7:53:0f:f3:da:be:
                    69:64:b5:0f:0c:00:e3:b3:50:47:a3:b3:9b:ba:13:
                    50:d6:58:5a:4b:ab:39:e0:11:ca:0a:27:67:03:78:
                    22:66:6d:92:1e:1b:5c:49:ae:e6:6b:d1:8e:3b:9d:
                    06:d3:c6:ac:4d:53:43:10:ab:e8:96:c1:87:82:97:
                    99:8f:20:d3:99:12:37:31:84:e1:8a:ff:29:03:5f:
                    22:90:3e:7f:9b:e0:20:c1:ad:dc:ae:4c:39:1a:31:
                    96:17:02:8c:b2:d9:b4:0d:20:12:9b:7d:86:54:fd:
                    33:fd:c1:2a:62:46:f8:60:96:cf:6e:01:6f:22:df:
                    13:47:e7:97:ec:05:72:23:a3:62:f8:fa:ef:ac:9c:
                    72:f0:37:cb:2f:37:cf:90:a8:27:51:86:c6:d7:78:
                    08:8f:7e:25:a2:15:70:a2:fb:1c:b6:15:5e:a0:97:
                    8b:81:4c:09:28:8a:27:3b:94:bc:71:db:5b:71:37:
                    9a:2b:16:e0:6f:b5:c9:f5:4b:4f:20:ba:65:cf:af:
                    ad:ad
                Exponent: 65537 (0x10001)
        X509v3 extensions:
            X509v3 Key Usage: 
                Digital Signature, Key Encipherment
            X509v3 Basic Constraints: 
                CA:FALSE
            Netscape Cert Type: 
                SSL Server
            Netscape Comment: 
                OpenSSL Generated Server Certificate
            X509v3 Subject Key Identifier: 
                E5:25:6D:3E:AF:0D:DD:3F:4C:F2:45:19:39:D5:14:DB:7E:9C:C0:AD
            X509v3 Authority Key Identifier: 
                keyid:F4:A7:C0:CC:91:46:AF:64:F3:91:F2:27:F8:C8:B2:6F:8A:87:32:73
                DirName:/C=DE/ST=Hessen/O=privacyidea/CN=CA001
                serial:FB:C8:EB:AC:83:CD:12:07

            X509v3 Extended Key Usage: 
                TLS Web Server Authentication
    Signature Algorithm: sha256WithRSAEncryption
         96:34:f3:22:15:64:bd:c0:ef:b7:34:e5:b7:6f:b7:ca:65:f8:
         18:65:b1:b0:75:9c:c3:80:ea:23:07:ed:87:55:05:ff:33:0b:
         4d:3b:36:81:63:e0:4a:2e:84:17:0c:7f:36:3b:30:bf:c5:81:
         58:f8:2b:5a:b6:d0:dd:35:aa:2e:16:c3:22:33:9b:c1:f1:29:
         1c:c5:75:cf:df:4b:9b:6c:98:c5:1a:9b:08:d5:0c:9e:e8:fd:
         72:80:19:ab:85:3f:f2:d5:8e:00:08:03:f0:f8:f8:53:1c:e7:
         d2:85:c9:62:cb:c7:b0:c0:c7:0b:8d:fb:86:28:40:36:24:2d:
         95:68:f3:10:df:e2:5d:7d:16:f2:5f:d0:eb:b0:6c:79:83:a4:
         86:30:01:0b:84:5e:35:a6:6a:e0:71:42:d5:2a:ab:56:12:95:
         02:2b:a5:59:c2:18:66:99:6d:9a:dc:b4:22:37:3e:a1:6c:d7:
         f9:23:2e:9d:ff:d2:d9:55:b8:2d:30:2a:9d:37:b2:40:f4:a0:
         f4:9f:02:c2:56:10:f8:fa:52:20:df:f1:48:45:3a:83:e2:27:
         5b:13:75:aa:f3:e0:67:a2:e5:3d:2d:3f:e6:8a:43:28:0b:1f:
         8e:be:c1:51:27:0b:74:0d:b5:96:f3:9a:be:1a:8f:81:3b:51:
         20:f1:3a:51
-----BEGIN CERTIFICATE-----
MIIECTCCAvGgAwIBAgIEEAAA1DANBgkqhkiG9w0BAQsFADBEMQswCQYDVQQGEwJE
RTEPMA0GA1UECAwGSGVzc2VuMRQwEgYDVQQKDAtwcml2YWN5aWRlYTEOMAwGA1UE
AwwFQ0EwMDEwHhcNMTgwMzAyMjI1NTA0WhcNMjAwMzIxMjI1NTA0WjA3MRMwEQYD
VQQDDApTdGV2ZSBUZXN0MSAwHgYJKoZIhvcNAQkBFhFzdGV2ZUBvcGVuc3NsLm9y
ZzCCASIwDQYJKoZIhvcNAQEBBQADggEPADCCAQoCggEBANKBiSBRSA9z9BEyJNUf
HP1c9bbmxfBSgdzSr2ZKfJMxYVyv0W0GcANgfHIMiN1JzZ4CbNJa11MP89q+aWS1
DwwA47NQR6Ozm7oTUNZYWkurOeARygonZwN4ImZtkh4bXEmu5mvRjjudBtPGrE1T
QxCr6JbBh4KXmY8g05kSNzGE4Yr/KQNfIpA+f5vgIMGt3K5MORoxlhcCjLLZtA0g
Ept9hlT9M/3BKmJG+GCWz24BbyLfE0fnl+wFciOjYvj676yccvA3yy83z5CoJ1GG
xtd4CI9+JaIVcKL7HLYVXqCXi4FMCSiKJzuUvHHbW3E3misW4G+1yfVLTyC6Zc+v
ra0CAwEAAaOCAQ4wggEKMAsGA1UdDwQEAwIFoDAJBgNVHRMEAjAAMBEGCWCGSAGG
+EIBAQQEAwIGQDAzBglghkgBhvhCAQ0EJhYkT3BlblNTTCBHZW5lcmF0ZWQgU2Vy
dmVyIENlcnRpZmljYXRlMB0GA1UdDgQWBBTlJW0+rw3dP0zyRRk51RTbfpzArTB0
BgNVHSMEbTBrgBT0p8DMkUavZPOR8if4yLJviocyc6FIpEYwRDELMAkGA1UEBhMC
REUxDzANBgNVBAgMBkhlc3NlbjEUMBIGA1UECgwLcHJpdmFjeWlkZWExDjAMBgNV
BAMMBUNBMDAxggkA+8jrrIPNEgcwEwYDVR0lBAwwCgYIKwYBBQUHAwEwDQYJKoZI
hvcNAQELBQADggEBAJY08yIVZL3A77c05bdvt8pl+BhlsbB1nMOA6iMH7YdVBf8z
C007NoFj4EouhBcMfzY7ML/FgVj4K1q20N01qi4WwyIzm8HxKRzFdc/fS5tsmMUa
mwjVDJ7o/XKAGauFP/LVjgAIA/D4+FMc59KFyWLLx7DAxwuN+4YoQDYkLZVo8xDf
4l19FvJf0OuwbHmDpIYwAQuEXjWmauBxQtUqq1YSlQIrpVnCGGaZbZrctCI3PqFs
1/kjLp3/0tlVuC0wKp03skD0oPSfAsJWEPj6UiDf8UhFOoPiJ1sTdarz4Gei5T0t
P+aKQygLH46+wVEnC3QNtZbzmr4aj4E7USDxOlE=
-----END CERTIFICATE-----
