Certificate:
    Data:
        Version: 3 (0x2)
        Serial Number: 268435675 (0x100000db)
    Signature Algorithm: sha256WithRSAEncryption
        Issuer: C=DE, ST=Hessen, O=privacyidea, CN=CA001
        Validity
            Not Before: Jan 22 13:09:26 2018 GMT
            Not After : Jan 22 13:09:26 2019 GMT
        Subject: C=DE, ST=Hessen, O=privacyidea, CN=requester.localdomain
        Subject Public Key Info:
            Public Key Algorithm: rsaEncryption
                Public-Key: (2048 bit)
                Modulus:
                    00:cd:be:14:4f:fa:ce:01:3f:42:22:1b:1d:9c:af:
                    dd:92:d2:7f:db:6c:b7:3e:39:43:43:6b:13:03:f1:
                    05:f4:07:74:bc:76:69:28:0b:af:19:8e:d7:fc:e3:
                    cd:c6:58:f2:ca:7f:08:6d:53:fc:07:02:44:24:c6:
                    b4:34:4c:8c:04:fe:33:0e:40:e2:20:ba:02:73:5a:
                    f7:f5:4f:63:6e:cc:c6:b6:df:54:1d:37:39:7d:51:
                    36:26:5f:bd:dc:3f:a8:8b:6b:a2:ae:b6:9d:d6:21:
                    e7:df:41:b8:7a:28:2a:68:48:ca:a8:2d:ed:e1:e9:
                    46:5e:5a:72:6d:b4:84:38:87:91:fd:94:11:0b:28:
                    84:c6:c2:2f:2a:fb:01:f9:36:7a:09:75:d1:33:88:
                    3c:73:41:5b:c8:bf:94:89:70:a1:f0:c0:b9:2e:50:
                    53:1e:b1:17:64:69:f4:2d:81:e0:a9:0d:0e:32:e9:
                    ba:55:8a:85:f1:1b:6f:49:79:b4:7f:88:c3:0d:3e:
                    54:88:9b:3d:1f:38:8c:04:f3:ee:6a:63:2b:f5:c6:
                    db:b4:83:aa:c4:78:41:3a:7d:4b:e1:c8:3e:71:ca:
                    1b:61:59:ea:c6:c4:ca:32:5e:c9:e9:bf:12:29:e6:
                    c6:c3:63:fe:a0:55:da:7a:f1:60:98:4d:26:ed:fa:
                    70:2d
                Exponent: 65537 (0x10001)
        X509v3 extensions:
            X509v3 Key Usage: 
                Digital Signature, Key Encipherment
            X509v3 Basic Constraints: 
                CA:FALSE
            Netscape Cert Type: 
                SSL Server
            Netscape Comment: 
                OpenSSL Generated Server Certificate
            X509v3 Subject Key Identifier: 
                53:3F:ED:5D:09:07:B3:65:7B:AB:45:C9:24:5B:09:77:80:0A:96:ED
            X509v3 Authority Key Identifier: 
                keyid:F4:A7:C0:CC:91:46:AF:64:F3:91:F2:27:F8:C8:B2:6F:8A:87:32:73
                DirName:/C=DE/ST=Hessen/O=privacyidea/CN=CA001
                serial:FB:C8:EB:AC:83:CD:12:07

            X509v3 Extended Key Usage: 
                TLS Web Server Authentication
    Signature Algorithm: sha256WithRSAEncryption
         2a:ed:9d:04:ce:05:26:75:db:2c:92:a8:4a:5c:f1:7c:50:86:
         85:52:8f:bb:8e:4e:24:8f:a4:dc:6d:1b:11:e8:69:29:e0:dc:
         f6:3e:88:87:37:d4:71:75:8e:81:53:56:83:9e:83:69:b0:ba:
         ed:cc:6b:4c:9a:d5:7c:c0:4a:51:2c:63:5b:c3:4c:58:40:43:
         0a:d8:d3:c6:7c:87:8b:6a:34:b0:dc:58:58:bf:a9:52:51:6f:
         62:8e:06:a4:5d:27:3b:a4:71:74:38:6e:67:92:d7:cf:24:8b:
         c1:e1:9d:ae:2a:8f:7f:69:17:87:4c:0f:fe:12:55:60:42:2b:
         25:0b:5c:79:9e:6d:ef:66:be:5d:87:bb:f2:ca:63:96:cd:b6:
         a6:02:57:2e:05:2c:c6:2f:8a:15:dd:59:fc:13:6e:ad:b2:6e:
         88:4b:a3:71:5d:04:27:bd:cf:6c:e2:72:53:99:bc:82:58:c1:
         01:c9:a1:cf:fd:0c:a1:73:3c:a3:a0:ff:9d:dc:13:f1:ea:45:
         7d:61:79:3a:59:e0:23:71:0f:58:bd:5a:04:3e:03:c2:67:00:
         46:2f:1f:72:84:78:96:26:f2:b5:f4:92:6d:98:63:55:93:09:
         1a:a8:ae:7e:17:af:7e:06:67:11:0b:14:8f:22:ad:eb:ce:f3:
         26:ab:b1:62
-----BEGIN CERTIFICATE-----
MIIEJjCCAw6gAwIBAgIEEAAA2zANBgkqhkiG9w0BAQsFADBEMQswCQYDVQQGEwJE
RTEPMA0GA1UECAwGSGVzc2VuMRQwEgYDVQQKDAtwcml2YWN5aWRlYTEOMAwGA1UE
AwwFQ0EwMDEwHhcNMTgwMTIyMTMwOTI2WhcNMTkwMTIyMTMwOTI2WjBUMQswCQYD
VQQGEwJERTEPMA0GA1UECAwGSGVzc2VuMRQwEgYDVQQKDAtwcml2YWN5aWRlYTEe
MBwGA1UEAwwVcmVxdWVzdGVyLmxvY2FsZG9tYWluMIIBIjANBgkqhkiG9w0BAQEF
AAOCAQ8AMIIBCgKCAQEAzb4UT/rOAT9CIhsdnK/dktJ/22y3PjlDQ2sTA/EF9Ad0
vHZpKAuvGY7X/OPNxljyyn8IbVP8BwJEJMa0NEyMBP4zDkDiILoCc1r39U9jbszG
tt9UHTc5fVE2Jl+93D+oi2uirrad1iHn30G4eigqaEjKqC3t4elGXlpybbSEOIeR
/ZQRCyiExsIvKvsB+TZ6CXXRM4g8c0FbyL+UiXCh8MC5LlBTHrEXZGn0LYHgqQ0O
Mum6VYqF8RtvSXm0f4jDDT5UiJs9HziMBPPuamMr9cbbtIOqxHhBOn1L4cg+ccob
YVnqxsTKMl7J6b8SKebGw2P+oFXaevFgmE0m7fpwLQIDAQABo4IBDjCCAQowCwYD
VR0PBAQDAgWgMAkGA1UdEwQCMAAwEQYJYIZIAYb4QgEBBAQDAgZAMDMGCWCGSAGG
+EIBDQQmFiRPcGVuU1NMIEdlbmVyYXRlZCBTZXJ2ZXIgQ2VydGlmaWNhdGUwHQYD
VR0OBBYEFFM/7V0JB7Nle6tFySRbCXeACpbtMHQGA1UdIwRtMGuAFPSnwMyRRq9k
85HyJ/jIsm+KhzJzoUikRjBEMQswCQYDVQQGEwJERTEPMA0GA1UECAwGSGVzc2Vu
MRQwEgYDVQQKDAtwcml2YWN5aWRlYTEOMAwGA1UEAwwFQ0EwMDGCCQD7yOusg80S
BzATBgNVHSUEDDAKBggrBgEFBQcDATANBgkqhkiG9w0BAQsFAAOCAQEAKu2dBM4F
JnXbLJKoSlzxfFCGhVKPu45OJI+k3G0bEehpKeDc9j6IhzfUcXWOgVNWg56DabC6
7cxrTJrVfMBKUSxjW8NMWEBDCtjTxnyHi2o0sNxYWL+pUlFvYo4GpF0nO6RxdDhu
Z5LXzySLweGdriqPf2kXh0wP/hJVYEIrJQtceZ5t72a+XYe78spjls22pgJXLgUs
xi+KFd1Z/BNurbJuiEujcV0EJ73PbOJyU5m8gljBAcmhz/0MoXM8o6D/ndwT8epF
fWF5OlngI3EPWL1aBD4DwmcARi8fcoR4libytfSSbZhjVZMJGqiufhevfgZnEQsU
jyKt687zJquxYg==
-----END CERTIFICATE-----
