Certificate:
    Data:
        Version: 3 (0x2)
        Serial Number: 268435670 (0x100000d6)
    Signature Algorithm: sha256WithRSAEncryption
        Issuer: C=DE, ST=Hessen, O=privacyidea, CN=CA001
        Validity
            Not Before: Mar  2 22:59:30 2018 GMT
            Not After : Mar  2 22:59:30 2019 GMT
        Subject: OU=realm1, CN=cornelius/emailAddress=user@localhost.localdomain
        Subject Public Key Info:
            Public Key Algorithm: rsaEncryption
                Public-Key: (2048 bit)
                Modulus:
                    00:d6:08:d6:be:f2:50:d2:da:91:41:f7:a3:1f:37:
                    7b:a7:8c:11:f0:f1:20:9e:70:68:d4:43:1c:a1:03:
                    ef:58:1f:85:c8:5a:9c:9d:c2:0c:95:0a:40:c0:b4:
                    72:30:92:64:77:15:de:77:12:d2:76:8f:f2:03:5f:
                    3e:6b:23:f4:7b:d3:34:db:f1:ba:d8:f7:13:73:8e:
                    f2:d0:5f:3e:5e:26:f0:7b:bf:bc:fd:27:c1:4d:cb:
                    4f:28:c3:ae:fd:9b:da:59:f8:71:3e:9b:c1:53:bc:
                    20:ff:88:3a:7c:bf:ba:2f:23:9e:ba:69:79:03:9e:
                    6b:a6:30:e0:59:59:fc:7c:d1:67:34:21:bc:75:11:
                    3d:6a:22:7a:de:61:43:84:e5:90:fa:71:60:5c:c4:
                    97:23:03:be:81:4f:7f:4a:9f:ed:ee:74:15:e8:ec:
                    78:f4:c8:de:a6:da:25:3b:0c:a5:85:54:fe:53:ea:
                    e8:4c:70:17:aa:19:17:0c:7d:0d:5e:06:d1:f1:c4:
                    cf:bf:b5:a7:84:30:e4:35:5b:63:c4:9e:5b:5a:12:
                    58:3c:12:c7:93:13:c3:99:3c:72:71:ea:83:7f:76:
                    8c:65:7f:f1:fa:2c:8b:b5:e6:b9:c2:55:d5:22:a9:
                    37:b2:7e:98:c7:23:30:a9:dd:9e:cc:49:64:c1:46:
                    ca:99
                Exponent: 65537 (0x10001)
        X509v3 extensions:
            X509v3 Key Usage: 
                Digital Signature, Key Encipherment
            X509v3 Basic Constraints: 
                CA:FALSE
            Netscape Cert Type: 
                SSL Server
            Netscape Comment: 
                OpenSSL Generated Server Certificate
            X509v3 Subject Key Identifier: 
                C6:8B:47:95:D7:21:EE:3A:40:84:51:62:02:17:EA:87:5D:1D:3B:E0
            X509v3 Authority Key Identifier: 
                keyid:F4:A7:C0:CC:91:46:AF:64:F3:91:F2:27:F8:C8:B2:6F:8A:87:32:73
                DirName:/C=DE/ST=Hessen/O=privacyidea/CN=CA001
                serial:FB:C8:EB:AC:83:CD:12:07

            X509v3 Extended Key Usage: 
                TLS Web Server Authentication
    Signature Algorithm: sha256WithRSAEncryption
         74:4c:bd:2b:22:2d:ba:10:22:2e:3c:5b:86:8d:e7:d2:97:5a:
         3f:af:92:a7:27:fe:51:f9:92:e2:ae:78:2c:9d:33:db:4b:1a:
         cf:43:3c:ea:ba:2c:91:dc:c0:4a:88:12:dc:e1:0c:81:0a:04:
         8b:e9:99:88:30:7d:b5:8a:bf:5e:dd:04:f1:15:67:32:80:fc:
         d6:16:7e:af:5f:e6:db:65:6d:4e:75:53:64:7e:16:78:01:ad:
         e8:b4:9d:9d:7f:ee:47:cd:e8:f5:d0:02:ea:b1:a9:37:9a:e8:
         e0:e0:06:21:ae:b6:65:bf:9e:6d:64:99:14:99:74:a9:d6:c4:
         cd:af:5d:31:44:de:08:99:65:5c:29:be:29:c4:fc:08:25:6e:
         01:f2:1f:9c:43:85:a2:ef:b5:5a:f8:e5:04:c4:fe:8b:2d:fb:
         bb:e9:00:92:84:9d:4f:38:42:a2:eb:7f:8d:16:b3:71:ec:2c:
         dc:99:fc:a2:30:9e:b3:7b:35:e6:6f:f9:d4:c8:0a:ad:e6:59:
         0a:89:d4:00:e8:c4:2d:3e:bd:a1:1a:a5:07:01:82:ab:a5:2d:
         06:fa:cb:24:74:5c:bb:07:22:0f:d9:1d:be:29:ce:20:1b:df:
         f0:93:e4:38:89:81:a0:be:95:2b:ee:69:dc:96:59:db:42:b7:
         2c:bd:88:36
-----BEGIN CERTIFICATE-----
MIIEIjCCAwqgAwIBAgIEEAAA1jANBgkqhkiG9w0BAQsFADBEMQswCQYDVQQGEwJE
RTEPMA0GA1UECAwGSGVzc2VuMRQwEgYDVQQKDAtwcml2YWN5aWRlYTEOMAwGA1UE
AwwFQ0EwMDEwHhcNMTgwMzAyMjI1OTMwWhcNMTkwMzAyMjI1OTMwWjBQMQ8wDQYD
VQQLDAZyZWFsbTExEjAQBgNVBAMMCWNvcm5lbGl1czEpMCcGCSqGSIb3DQEJARYa
dXNlckBsb2NhbGhvc3QubG9jYWxkb21haW4wggEiMA0GCSqGSIb3DQEBAQUAA4IB
DwAwggEKAoIBAQDWCNa+8lDS2pFB96MfN3unjBHw8SCecGjUQxyhA+9YH4XIWpyd
wgyVCkDAtHIwkmR3Fd53EtJ2j/IDXz5rI/R70zTb8brY9xNzjvLQXz5eJvB7v7z9
J8FNy08ow679m9pZ+HE+m8FTvCD/iDp8v7ovI566aXkDnmumMOBZWfx80Wc0Ibx1
ET1qInreYUOE5ZD6cWBcxJcjA76BT39Kn+3udBXo7Hj0yN6m2iU7DKWFVP5T6uhM
cBeqGRcMfQ1eBtHxxM+/taeEMOQ1W2PEnltaElg8EseTE8OZPHJx6oN/doxlf/H6
LIu15rnCVdUiqTeyfpjHIzCp3Z7MSWTBRsqZAgMBAAGjggEOMIIBCjALBgNVHQ8E
BAMCBaAwCQYDVR0TBAIwADARBglghkgBhvhCAQEEBAMCBkAwMwYJYIZIAYb4QgEN
BCYWJE9wZW5TU0wgR2VuZXJhdGVkIFNlcnZlciBDZXJ0aWZpY2F0ZTAdBgNVHQ4E
FgQUxotHldch7jpAhFFiAhfqh10dO+AwdAYDVR0jBG0wa4AU9KfAzJFGr2TzkfIn
+Miyb4qHMnOhSKRGMEQxCzAJBgNVBAYTAkRFMQ8wDQYDVQQIDAZIZXNzZW4xFDAS
BgNVBAoMC3ByaXZhY3lpZGVhMQ4wDAYDVQQDDAVDQTAwMYIJAPvI66yDzRIHMBMG
A1UdJQQMMAoGCCsGAQUFBwMBMA0GCSqGSIb3DQEBCwUAA4IBAQB0TL0rIi26ECIu
PFuGjefSl1o/r5KnJ/5R+ZLirngsnTPbSxrPQzzquiyR3MBKiBLc4QyBCgSL6ZmI
MH21ir9e3QTxFWcygPzWFn6vX+bbZW1OdVNkfhZ4Aa3otJ2df+5Hzej10ALqsak3
mujg4AYhrrZlv55tZJkUmXSp1sTNr10xRN4ImWVcKb4pxPwIJW4B8h+cQ4Wi77Va
+OUExP6LLfu76QCShJ1POEKi63+NFrNx7CzcmfyiMJ6zezXmb/nUyAqt5lkKidQA
6MQtPr2hGqUHAYKrpS0G+sskdFy7ByIP2R2+Kc4gG9/wk+Q4iYGgvpUr7mncllnb
QrcsvYg2
-----END CERTIFICATE-----
