Certificate:
    Data:
        Version: 3 (0x2)
        Serial Number: 268435679 (0x100000df)
    Signature Algorithm: sha256WithRSAEncryption
        Issuer: C=DE, ST=Hessen, O=privacyidea, CN=CA001
        Validity
            Not Before: Jan 22 13:35:19 2018 GMT
            Not After : Jan 22 13:35:19 2019 GMT
        Subject: C=DE, ST=Hessen, O=privacyidea, CN=usercert
        Subject Public Key Info:
            Public Key Algorithm: rsaEncryption
                Public-Key: (2048 bit)
                Modulus:
                    00:dc:2f:d1:5f:29:97:d4:7c:c3:53:c8:30:bd:4b:
                    67:70:2c:24:6b:b8:5e:eb:21:7a:48:12:56:7c:81:
                    5c:48:75:b6:68:eb:f6:f2:98:4e:50:51:d1:7f:6c:
                    73:f3:0a:a7:ae:be:48:5e:e5:d6:e1:d9:2a:7c:32:
                    6e:4e:fd:08:f6:5a:54:49:23:73:c3:b9:07:18:d1:
                    ef:b3:ac:f8:8a:dc:94:96:a4:90:3a:8e:74:df:e6:
                    0d:37:1b:bd:5b:b7:25:1a:56:39:da:6f:91:aa:5e:
                    1c:74:f3:f9:7c:14:01:83:12:65:76:c7:bb:fe:36:
                    5b:95:e9:72:65:83:ed:3e:98:30:71:fa:87:dd:a3:
                    36:5a:30:03:2e:26:e0:61:d1:bf:02:3f:b6:06:1f:
                    4a:89:28:1c:5c:a2:ff:4e:be:94:e6:8c:e0:da:82:
                    f1:9d:29:32:48:30:73:b4:04:f6:42:1e:be:f7:e2:
                    32:32:27:3c:9d:89:2f:70:3e:85:9a:6f:5c:c5:09:
                    c0:8c:32:2f:72:22:c9:d2:95:1f:b6:ac:72:60:72:
                    b7:82:4d:6b:ce:5b:e3:00:d0:d2:2f:58:c6:e0:10:
                    e5:51:ca:4d:3b:2e:e6:7e:ab:84:d6:56:f1:93:35:
                    a0:93:64:26:81:75:2f:91:b5:16:06:38:0b:db:cc:
                    2d:07
                Exponent: 65537 (0x10001)
        X509v3 extensions:
            X509v3 Key Usage: 
                Digital Signature, Key Encipherment
            X509v3 Basic Constraints: 
                CA:FALSE
            Netscape Cert Type: 
                SSL Server
            Netscape Comment: 
                OpenSSL Generated Server Certificate
            X509v3 Subject Key Identifier: 
                FC:14:D1:F0:4B:8D:00:90:F2:F5:B8:71:9E:4E:97:C3:92:54:AD:0B
            X509v3 Authority Key Identifier: 
                keyid:F4:A7:C0:CC:91:46:AF:64:F3:91:F2:27:F8:C8:B2:6F:8A:87:32:73
                DirName:/C=DE/ST=Hessen/O=privacyidea/CN=CA001
                serial:FB:C8:EB:AC:83:CD:12:07

            X509v3 Extended Key Usage: 
                TLS Web Server Authentication
    Signature Algorithm: sha256WithRSAEncryption
         15:3d:e8:fe:ba:87:b9:2f:24:39:e6:27:b9:2c:d4:9c:c3:b4:
         f0:9a:16:41:47:17:90:dd:56:d9:21:a4:e4:4c:b4:68:bb:cc:
         b1:4f:1d:c5:5a:64:42:a3:8a:70:00:de:9a:66:30:cb:0f:40:
         f7:83:78:e0:44:19:4c:8f:34:0f:2f:01:31:e3:9e:f0:5a:d5:
         ab:6e:25:37:5b:b8:9a:63:7e:81:f4:b0:ca:c0:be:3a:fe:59:
         2e:6f:f4:f1:c8:51:82:89:4d:dc:9f:c4:5b:cf:54:d1:d1:42:
         71:de:7d:15:a2:3e:9f:0b:b1:3d:d7:e5:34:a4:27:0b:6c:60:
         25:88:31:75:8f:4c:59:13:98:bb:8e:7a:c5:55:ec:ec:e4:15:
         7a:8d:81:ac:1c:bd:fd:35:cf:13:69:88:b1:16:b4:aa:a1:0c:
         61:d9:47:35:da:ad:3c:d6:b1:73:2b:0c:54:d9:55:0c:b2:e3:
         ac:2f:14:e7:cd:5e:ae:8e:a0:d6:e3:ba:15:0d:8d:4d:a1:c5:
         e2:1c:71:41:02:8b:a5:1b:d8:d6:cf:2e:9e:3b:16:7f:5d:ef:
         a6:fe:7d:5e:ba:b5:44:e6:db:38:f8:f6:b5:92:84:59:70:b9:
         80:11:12:78:f8:4c:97:a4:39:c8:72:d2:ce:e0:c7:0c:1c:9e:
         bb:e6:5b:05
-----BEGIN CERTIFICATE-----
MIIEGTCCAwGgAwIBAgIEEAAA3zANBgkqhkiG9w0BAQsFADBEMQswCQYDVQQGEwJE
RTEPMA0GA1UECAwGSGVzc2VuMRQwEgYDVQQKDAtwcml2YWN5aWRlYTEOMAwGA1UE
AwwFQ0EwMDEwHhcNMTgwMTIyMTMzNTE5WhcNMTkwMTIyMTMzNTE5WjBHMQswCQYD
VQQGEwJERTEPMA0GA1UECAwGSGVzc2VuMRQwEgYDVQQKDAtwcml2YWN5aWRlYTER
MA8GA1UEAwwIdXNlcmNlcnQwggEiMA0GCSqGSIb3DQEBAQUAA4IBDwAwggEKAoIB
AQDcL9FfKZfUfMNTyDC9S2dwLCRruF7rIXpIElZ8gVxIdbZo6/bymE5QUdF/bHPz
Cqeuvkhe5dbh2Sp8Mm5O/Qj2WlRJI3PDuQcY0e+zrPiK3JSWpJA6jnTf5g03G71b
tyUaVjnab5GqXhx08/l8FAGDEmV2x7v+NluV6XJlg+0+mDBx+ofdozZaMAMuJuBh
0b8CP7YGH0qJKBxcov9OvpTmjODagvGdKTJIMHO0BPZCHr734jIyJzydiS9wPoWa
b1zFCcCMMi9yIsnSlR+2rHJgcreCTWvOW+MA0NIvWMbgEOVRyk07LuZ+q4TWVvGT
NaCTZCaBdS+RtRYGOAvbzC0HAgMBAAGjggEOMIIBCjALBgNVHQ8EBAMCBaAwCQYD
VR0TBAIwADARBglghkgBhvhCAQEEBAMCBkAwMwYJYIZIAYb4QgENBCYWJE9wZW5T
U0wgR2VuZXJhdGVkIFNlcnZlciBDZXJ0aWZpY2F0ZTAdBgNVHQ4EFgQU/BTR8EuN
AJDy9bhxnk6Xw5JUrQswdAYDVR0jBG0wa4AU9KfAzJFGr2TzkfIn+Miyb4qHMnOh
SKRGMEQxCzAJBgNVBAYTAkRFMQ8wDQYDVQQIDAZIZXNzZW4xFDASBgNVBAoMC3By
aXZhY3lpZGVhMQ4wDAYDVQQDDAVDQTAwMYIJAPvI66yDzRIHMBMGA1UdJQQMMAoG
CCsGAQUFBwMBMA0GCSqGSIb3DQEBCwUAA4IBAQAVPej+uoe5LyQ55ie5LNScw7Tw
mhZBRxeQ3VbZIaTkTLRou8yxTx3FWmRCo4pwAN6aZjDLD0D3g3jgRBlMjzQPLwEx
457wWtWrbiU3W7iaY36B9LDKwL46/lkub/TxyFGCiU3cn8Rbz1TR0UJx3n0Voj6f
C7E91+U0pCcLbGAliDF1j0xZE5i7jnrFVezs5BV6jYGsHL39Nc8TaYixFrSqoQxh
2Uc12q081rFzKwxU2VUMsuOsLxTnzV6ujqDW47oVDY1NocXiHHFBAoulG9jWzy6e
OxZ/Xe+m/n1eurVE5ts4+Pa1koRZcLmAERJ4+EyXpDnIctLO4McMHJ675lsF
-----END CERTIFICATE-----
