Certificate:
    Data:
        Version: 3 (0x2)
        Serial Number: 268435667 (0x100000d3)
    Signature Algorithm: sha256WithRSAEncryption
        Issuer: C=DE, ST=Hessen, O=privacyidea, CN=CA001
        Validity
            Not Before: Mar  2 22:55:03 2018 GMT
            Not After : Mar  2 22:55:03 2019 GMT
        Subject: CN=Steve Test/emailAddress=steve@openssl.org
        Subject Public Key Info:
            Public Key Algorithm: rsaEncryption
                Public-Key: (2048 bit)
                Modulus:
                    00:d2:81:89:20:51:48:0f:73:f4:11:32:24:d5:1f:
                    1c:fd:5c:f5:b6:e6:c5:f0:52:81:dc:d2:af:66:4a:
                    7c:93:31:61:5c:af:d1:6d:06:70:03:60:7c:72:0c:
                    88:dd:49:cd:9e:02:6c:d2:5a:d7:53:0f:f3:da:be:
                    69:64:b5:0f:0c:00:e3:b3:50:47:a3:b3:9b:ba:13:
                    50:d6:58:5a:4b:ab:39:e0:11:ca:0a:27:67:03:78:
                    22:66:6d:92:1e:1b:5c:49:ae:e6:6b:d1:8e:3b:9d:
                    06:d3:c6:ac:4d:53:43:10:ab:e8:96:c1:87:82:97:
                    99:8f:20:d3:99:12:37:31:84:e1:8a:ff:29:03:5f:
                    22:90:3e:7f:9b:e0:20:c1:ad:dc:ae:4c:39:1a:31:
                    96:17:02:8c:b2:d9:b4:0d:20:12:9b:7d:86:54:fd:
                    33:fd:c1:2a:62:46:f8:60:96:cf:6e:01:6f:22:df:
                    13:47:e7:97:ec:05:72:23:a3:62:f8:fa:ef:ac:9c:
                    72:f0:37:cb:2f:37:cf:90:a8:27:51:86:c6:d7:78:
                    08:8f:7e:25:a2:15:70:a2:fb:1c:b6:15:5e:a0:97:
                    8b:81:4c:09:28:8a:27:3b:94:bc:71:db:5b:71:37:
                    9a:2b:16:e0:6f:b5:c9:f5:4b:4f:20:ba:65:cf:af:
                    ad:ad
                Exponent: 65537 (0x10001)
        X509v3 extensions:
            X509v3 Key Usage: 
                Digital Signature, Key Encipherment
            X509v3 Basic Constraints: 
                CA:FALSE
            Netscape Cert Type: 
                SSL Server
            Netscape Comment: 
                OpenSSL Generated Server Certificate
            X509v3 Subject Key Identifier: 
                E5:25:6D:3E:AF:0D:DD:3F:4C:F2:45:19:39:D5:14:DB:7E:9C:C0:AD
            X509v3 Authority Key Identifier: 
                keyid:F4:A7:C0:CC:91:46:AF:64:F3:91:F2:27:F8:C8:B2:6F:8A:87:32:73
                DirName:/C=DE/ST=Hessen/O=privacyidea/CN=CA001
                serial:FB:C8:EB:AC:83:CD:12:07

            X509v3 Extended Key Usage: 
                TLS Web Server Authentication
    Signature Algorithm: sha256WithRSAEncryption
         2d:43:86:29:ef:5e:3e:2e:ae:0f:65:e5:58:3d:16:76:94:68:
         df:9f:67:82:44:02:5c:5c:de:4a:c3:3a:9a:a5:3a:85:43:37:
         e7:08:08:9b:8b:c1:ee:ac:af:ac:6e:b9:b3:c6:6a:53:32:e4:
         f2:ef:85:90:b0:91:0e:31:32:de:57:a1:d8:41:b1:d2:78:4c:
         c0:47:52:d4:1f:b6:db:ba:d0:16:28:f1:37:bd:5b:27:39:26:
         15:8c:1a:8c:2c:fa:6b:24:19:80:b6:e3:f3:dc:28:79:eb:2f:
         bb:50:49:33:39:68:27:5e:fd:33:71:d1:b8:02:b0:c8:18:51:
         eb:a2:89:bc:7d:63:7e:35:4c:c4:da:b3:2b:10:6d:d2:2a:06:
         fb:fb:54:4b:04:f8:25:64:6c:45:04:96:81:4c:c3:f0:df:1c:
         97:a3:99:db:dc:cd:ad:41:b5:28:c7:2e:89:7f:54:4b:9d:9d:
         f1:d9:0f:1e:80:68:5d:b2:9c:c6:e3:78:6f:0f:2c:57:a4:59:
         26:2b:40:a2:09:58:db:b8:54:7c:fb:d5:0f:4e:df:d7:69:14:
         63:1c:99:cc:61:0b:0b:a2:c2:11:c6:05:30:1d:73:4b:32:67:
         e9:e7:06:52:7d:62:39:54:77:4b:b0:53:d6:e5:d1:fb:5e:9c:
         06:28:da:76
-----BEGIN CERTIFICATE-----
MIIECTCCAvGgAwIBAgIEEAAA0zANBgkqhkiG9w0BAQsFADBEMQswCQYDVQQGEwJE
RTEPMA0GA1UECAwGSGVzc2VuMRQwEgYDVQQKDAtwcml2YWN5aWRlYTEOMAwGA1UE
AwwFQ0EwMDEwHhcNMTgwMzAyMjI1NTAzWhcNMTkwMzAyMjI1NTAzWjA3MRMwEQYD
VQQDDApTdGV2ZSBUZXN0MSAwHgYJKoZIhvcNAQkBFhFzdGV2ZUBvcGVuc3NsLm9y
ZzCCASIwDQYJKoZIhvcNAQEBBQADggEPADCCAQoCggEBANKBiSBRSA9z9BEyJNUf
HP1c9bbmxfBSgdzSr2ZKfJMxYVyv0W0GcANgfHIMiN1JzZ4CbNJa11MP89q+aWS1
DwwA47NQR6Ozm7oTUNZYWkurOeARygonZwN4ImZtkh4bXEmu5mvRjjudBtPGrE1T
QxCr6JbBh4KXmY8g05kSNzGE4Yr/KQNfIpA+f5vgIMGt3K5MORoxlhcCjLLZtA0g
Ept9hlT9M/3BKmJG+GCWz24BbyLfE0fnl+wFciOjYvj676yccvA3yy83z5CoJ1GG
xtd4CI9+JaIVcKL7HLYVXqCXi4FMCSiKJzuUvHHbW3E3misW4G+1yfVLTyC6Zc+v
ra0CAwEAAaOCAQ4wggEKMAsGA1UdDwQEAwIFoDAJBgNVHRMEAjAAMBEGCWCGSAGG
+EIBAQQEAwIGQDAzBglghkgBhvhCAQ0EJhYkT3BlblNTTCBHZW5lcmF0ZWQgU2Vy
dmVyIENlcnRpZmljYXRlMB0GA1UdDgQWBBTlJW0+rw3dP0zyRRk51RTbfpzArTB0
BgNVHSMEbTBrgBT0p8DMkUavZPOR8if4yLJviocyc6FIpEYwRDELMAkGA1UEBhMC
REUxDzANBgNVBAgMBkhlc3NlbjEUMBIGA1UECgwLcHJpdmFjeWlkZWExDjAMBgNV
BAMMBUNBMDAxggkA+8jrrIPNEgcwEwYDVR0lBAwwCgYIKwYBBQUHAwEwDQYJKoZI
hvcNAQELBQADggEBAC1DhinvXj4urg9l5Vg9FnaUaN+fZ4JEAlxc3krDOpqlOoVD
N+cICJuLwe6sr6xuubPGalMy5PLvhZCwkQ4xMt5XodhBsdJ4TMBHUtQfttu60BYo
8Te9Wyc5JhWMGows+mskGYC24/PcKHnrL7tQSTM5aCde/TNx0bgCsMgYUeuiibx9
Y341TMTasysQbdIqBvv7VEsE+CVkbEUEloFMw/DfHJejmdvcza1BtSjHLol/VEud
nfHZDx6AaF2ynMbjeG8PLFekWSYrQKIJWNu4VHz71Q9O39dpFGMcmcxhCwuiwhHG
BTAdc0syZ+nnBlJ9YjlUd0uwU9bl0ftenAYo2nY=
-----END CERTIFICATE-----
