Certificate:
    Data:
        Version: 3 (0x2)
        Serial Number: 268435666 (0x100000d2)
    Signature Algorithm: sha256WithRSAEncryption
        Issuer: C=DE, ST=Hessen, O=privacyidea, CN=CA001
        Validity
            Not Before: Mar  2 22:55:03 2018 GMT
            Not After : Mar  2 22:55:03 2019 GMT
        Subject: C=DE, ST=Hessen, O=privacyidea, CN=usercert
        Subject Public Key Info:
            Public Key Algorithm: rsaEncryption
                Public-Key: (2048 bit)
                Modulus:
                    00:dc:2f:d1:5f:29:97:d4:7c:c3:53:c8:30:bd:4b:
                    67:70:2c:24:6b:b8:5e:eb:21:7a:48:12:56:7c:81:
                    5c:48:75:b6:68:eb:f6:f2:98:4e:50:51:d1:7f:6c:
                    73:f3:0a:a7:ae:be:48:5e:e5:d6:e1:d9:2a:7c:32:
                    6e:4e:fd:08:f6:5a:54:49:23:73:c3:b9:07:18:d1:
                    ef:b3:ac:f8:8a:dc:94:96:a4:90:3a:8e:74:df:e6:
                    0d:37:1b:bd:5b:b7:25:1a:56:39:da:6f:91:aa:5e:
                    1c:74:f3:f9:7c:14:01:83:12:65:76:c7:bb:fe:36:
                    5b:95:e9:72:65:83:ed:3e:98:30:71:fa:87:dd:a3:
                    36:5a:30:03:2e:26:e0:61:d1:bf:02:3f:b6:06:1f:
                    4a:89:28:1c:5c:a2:ff:4e:be:94:e6:8c:e0:da:82:
                    f1:9d:29:32:48:30:73:b4:04:f6:42:1e:be:f7:e2:
                    32:32:27:3c:9d:89:2f:70:3e:85:9a:6f:5c:c5:09:
                    c0:8c:32:2f:72:22:c9:d2:95:1f:b6:ac:72:60:72:
                    b7:82:4d:6b:ce:5b:e3:00:d0:d2:2f:58:c6:e0:10:
                    e5:51:ca:4d:3b:2e:e6:7e:ab:84:d6:56:f1:93:35:
                    a0:93:64:26:81:75:2f:91:b5:16:06:38:0b:db:cc:
                    2d:07
                Exponent: 65537 (0x10001)
        X509v3 extensions:
            X509v3 Key Usage: 
                Digital Signature, Key Encipherment
            X509v3 Basic Constraints: 
                CA:FALSE
            Netscape Cert Type: 
                SSL Server
            Netscape Comment: 
                OpenSSL Generated Server Certificate
            X509v3 Subject Key Identifier: 
                FC:14:D1:F0:4B:8D:00:90:F2:F5:B8:71:9E:4E:97:C3:92:54:AD:0B
            X509v3 Authority Key Identifier: 
                keyid:F4:A7:C0:CC:91:46:AF:64:F3:91:F2:27:F8:C8:B2:6F:8A:87:32:73
                DirName:/C=DE/ST=Hessen/O=privacyidea/CN=CA001
                serial:FB:C8:EB:AC:83:CD:12:07

            X509v3 Extended Key Usage: 
                TLS Web Server Authentication
    Signature Algorithm: sha256WithRSAEncryption
         5c:b3:8f:d3:38:89:7e:6f:c1:ae:80:cd:04:f1:43:3e:97:e9:
         f6:de:a4:70:47:ff:4b:89:6b:68:3e:da:4f:e8:d5:ea:32:7b:
         e3:3e:42:3a:f6:5f:8f:9a:4e:7d:61:1f:1a:58:f5:77:57:d1:
         b9:cd:2a:4b:24:9b:ab:bc:eb:53:fc:c3:d1:0a:e7:6b:97:7d:
         c9:24:6d:76:9b:ae:4a:12:1d:02:4c:1a:84:fb:1e:89:ec:6c:
         30:a5:c4:be:dd:9c:15:7a:9b:83:c9:0a:76:7a:2a:19:c5:0c:
         a9:d4:97:8d:2b:bd:33:b6:c2:34:23:56:43:5e:12:d9:44:98:
         ae:1f:d2:e9:c6:e0:b4:27:6f:85:35:71:f7:3d:6f:79:8e:c0:
         67:56:a0:bf:72:f5:5c:11:a7:c3:d3:10:39:92:43:26:48:dc:
         5d:b3:f7:83:ff:11:1a:63:65:c3:22:26:fe:51:51:ab:46:dc:
         c4:fb:c3:f7:7f:10:1c:22:47:c3:88:b0:48:75:41:7f:78:79:
         16:b8:a8:20:b0:a0:b8:28:83:2f:0e:20:05:a6:bb:9e:38:85:
         f3:f3:6c:dd:0a:7e:03:5d:d9:be:95:45:63:4d:3f:d6:fe:1a:
         24:d0:4c:b7:a8:e6:80:4d:db:07:c7:44:7f:f0:f2:5d:4f:d7:
         9d:9b:c7:1a
-----BEGIN CERTIFICATE-----
MIIEGTCCAwGgAwIBAgIEEAAA0jANBgkqhkiG9w0BAQsFADBEMQswCQYDVQQGEwJE
RTEPMA0GA1UECAwGSGVzc2VuMRQwEgYDVQQKDAtwcml2YWN5aWRlYTEOMAwGA1UE
AwwFQ0EwMDEwHhcNMTgwMzAyMjI1NTAzWhcNMTkwMzAyMjI1NTAzWjBHMQswCQYD
VQQGEwJERTEPMA0GA1UECAwGSGVzc2VuMRQwEgYDVQQKDAtwcml2YWN5aWRlYTER
MA8GA1UEAwwIdXNlcmNlcnQwggEiMA0GCSqGSIb3DQEBAQUAA4IBDwAwggEKAoIB
AQDcL9FfKZfUfMNTyDC9S2dwLCRruF7rIXpIElZ8gVxIdbZo6/bymE5QUdF/bHPz
Cqeuvkhe5dbh2Sp8Mm5O/Qj2WlRJI3PDuQcY0e+zrPiK3JSWpJA6jnTf5g03G71b
tyUaVjnab5GqXhx08/l8FAGDEmV2x7v+NluV6XJlg+0+mDBx+ofdozZaMAMuJuBh
0b8CP7YGH0qJKBxcov9OvpTmjODagvGdKTJIMHO0BPZCHr734jIyJzydiS9wPoWa
b1zFCcCMMi9yIsnSlR+2rHJgcreCTWvOW+MA0NIvWMbgEOVRyk07LuZ+q4TWVvGT
NaCTZCaBdS+RtRYGOAvbzC0HAgMBAAGjggEOMIIBCjALBgNVHQ8EBAMCBaAwCQYD
VR0TBAIwADARBglghkgBhvhCAQEEBAMCBkAwMwYJYIZIAYb4QgENBCYWJE9wZW5T
U0wgR2VuZXJhdGVkIFNlcnZlciBDZXJ0aWZpY2F0ZTAdBgNVHQ4EFgQU/BTR8EuN
AJDy9bhxnk6Xw5JUrQswdAYDVR0jBG0wa4AU9KfAzJFGr2TzkfIn+Miyb4qHMnOh
SKRGMEQxCzAJBgNVBAYTAkRFMQ8wDQYDVQQIDAZIZXNzZW4xFDASBgNVBAoMC3By
aXZhY3lpZGVhMQ4wDAYDVQQDDAVDQTAwMYIJAPvI66yDzRIHMBMGA1UdJQQMMAoG
CCsGAQUFBwMBMA0GCSqGSIb3DQEBCwUAA4IBAQBcs4/TOIl+b8GugM0E8UM+l+n2
3qRwR/9LiWtoPtpP6NXqMnvjPkI69l+Pmk59YR8aWPV3V9G5zSpLJJurvOtT/MPR
Cudrl33JJG12m65KEh0CTBqE+x6J7GwwpcS+3ZwVepuDyQp2eioZxQyp1JeNK70z
tsI0I1ZDXhLZRJiuH9LpxuC0J2+FNXH3PW95jsBnVqC/cvVcEafD0xA5kkMmSNxd
s/eD/xEaY2XDIib+UVGrRtzE+8P3fxAcIkfDiLBIdUF/eHkWuKggsKC4KIMvDiAF
prueOIXz82zdCn4DXdm+lUVjTT/W/hok0Ey3qOaATdsHx0R/8PJdT9edm8ca
-----END CERTIFICATE-----
